Component: ARM Compiler 5.06 update 7 (build 960) Tool: armlink [4d3601]

==============================================================================

Section Cross References

    system_da14585_586.o(.text) refers to system_da14585_586.o(.data) for .data
    startup_da14585_586.o(RESET) refers to startup_da14585_586.o(STACK) for __initial_sp
    startup_da14585_586.o(RESET) refers to startup_da14585_586.o(.text) for Reset_Handler
    startup_da14585_586.o(RESET) refers to rwble.o(.text) for BLE_WAKEUP_LP_Handler
    startup_da14585_586.o(RESET) refers to uart.o(.text) for UART2_Handler
    startup_da14585_586.o(RESET) refers to i2c.o(.text) for I2C_Handler
    startup_da14585_586.o(RESET) refers to adc_58x.o(.text) for ADC_Handler
    startup_da14585_586.o(RESET) refers to gpio.o(.text) for GPIO0_Handler
    startup_da14585_586.o(RESET) refers to wkupct_quadec.o(.text) for WKUP_QUADEC_Handler
    startup_da14585_586.o(.text) refers to system_da14585_586.o(.text) for SystemInit
    startup_da14585_586.o(.text) refers to entry.o(.ARM.Collect$$$$00000000) for __main
    startup_da14585_586.o(.text) refers to nmi_handler.o(.text) for NMI_HandlerC
    startup_da14585_586.o(.text) refers to hardfault_handler.o(.text) for HardFault_HandlerC
    arch_console.o(.text) refers to arch_console.o(.text) for _putc
    arch_console.o(.text) refers to arch_console.o(.text) for _puts
    arch_console.o(.text) refers to arch_console.o(.text) for arch_itoa
    arch_console.o(.text) refers to arch_console.o(.text) for arch_strlen
    arch_console.o(.text) refers to uart.o(.text) for uart_wait_tx_finish
    arch_console.o(.text) refers to arch_sleep.o(.text) for arch_restore_sleep_mode
    arch_console.o(.text) refers to arch_console.o(retention_mem_area0) for retention_mem_area0
    arch_console.o(.text) refers to arch_console.o(.bss) for .bss
    arch_console.o(.text) refers to arch_console.o(.text) for arch_vsnprintf
    arch_console.o(.text) refers to arch_console.o(.text) for arch_printf_flush
    arch_console.o(.text) refers to arch_console.o(retention_mem_area0) for retention_mem_area0
    arch_console.o(.text) refers to arch_console.o(.bss) for .bss
    arch_console.o(.text) refers to arch_console.o(.text) for arch_vprintf
    arch_console.o(.text) refers to arch_console.o(.text) for arch_printf
    nvds.o(.text) refers to nvds.o(.constdata) for .constdata
    nvds.o(.text) refers to arch_system.o(retention_mem_area0) for dev_bdaddr
    arch_main.o(.text) refers to arch_system.o(.text) for system_init
    arch_main.o(.text) refers to arch_console.o(.text) for arch_printf_process
    arch_main.o(.text) refers to rwip.o(.text) for rwip_sleep
    arch_main.o(.text) refers to arch_main.o(retention_mem_area0) for retention_mem_area0
    arch_main.o(.text) refers to rwble.o(retention_mem_area0) for arch_rwble_last_event
    arch_main.o(.constdata) refers to user_peripheral.o(.text) for user_app_init
    jump_table.o(.constdata) refers to rf_585.o(.text) for rf_init_func
    jump_table.o(.constdata) refers to nvds.o(.text) for nvds_get_func
    jump_table.o(.constdata) refers to jump_table.o(.text) for platform_reset_func
    jump_table.o(.constdata) refers to rwble.o(.text) for lld_sleep_compensate_func
    jump_table.o(.constdata) refers to arch_system.o(.text) for lld_sleep_init_func
    jump_table.o(.constdata) refers to prf.o(.text) for prf_init_func
    jump_table.o(.constdata) refers to patch.o(.text) for JT_l2cc_pdu_unpack_func
    jump_table.o(.constdata) refers to jump_table.o(heap_mem_area_not_ret) for rwip_heap_non_ret
    jump_table.o(.constdata) refers to jump_table.o(heap_env_area) for rwip_heap_env_ret
    jump_table.o(.constdata) refers to jump_table.o(heap_db_area) for rwip_heap_db_ret
    jump_table.o(.constdata) refers to jump_table.o(heap_msg_area) for rwip_heap_msg_ret
    arch_sleep.o(.text) refers to arch_sleep.o(retention_mem_area0) for retention_mem_area0
    arch_sleep.o(.text) refers to gpio.o(.text) for GPIO_DisablePorPin
    arch_sleep.o(.text) refers to arch_sleep.o(retention_mem_area0) for retention_mem_area0
    arch_sleep.o(.text) refers to arch_sleep.o(retention_mem_area0) for retention_mem_area0
    arch_sleep.o(.text) refers to rwble.o(retention_mem_area0) for arch_rwble_last_event
    arch_system.o(.text) refers to rf_calibration.o(.text) for rf_calibration_585
    arch_system.o(.text) refers to gpio.o(.text) for GPIO_init
    arch_system.o(.text) refers to hw_otpc_58x.o(.text) for hw_otpc_manual_read_on
    arch_system.o(.text) refers to otp_hdr.o(.text) for otp_hdr_get_bd_address
    arch_system.o(.text) refers to arch_rom.o(.text) for arch_rom_init
    arch_system.o(.text) refers to user_periph_setup.o(.text) for periph_init
    arch_system.o(.text) refers to trng.o(.text) for init_rand_seed_from_trng
    arch_system.o(.text) refers to arch_sleep.o(.text) for arch_disable_sleep
    arch_system.o(.text) refers to app.o(.text) for app_init
    arch_system.o(.text) refers to user_peripheral.o(.text) for user_app_init
    arch_system.o(.text) refers to arch_system.o(retention_mem_area0) for retention_mem_area0
    arch_system.o(.text) refers to rwble.o(retention_mem_area0) for twirq_set
    arch_system.o(.text) refers to arch_system.o(.data) for .data
    arch_system.o(.text) refers to arch_system.o(retention_mem_area0) for retention_mem_area0
    arch_system.o(.text) refers to arch_system.o(i.__ARM_common_ll_muluu) for __ARM_common_ll_muluu
    arch_system.o(.text) refers to arch_system.o(retention_mem_area0) for retention_mem_area0
    arch_system.o(.constdata) refers to user_peripheral.o(.text) for user_app_init
    arch_rom.o(.text) refers to patch.o(.text) for patch_global_vars_init
    arch_rom.o(.text) refers to arch_rom.o(retention_mem_area0) for retention_mem_area0
    arch_rom.o(.text) refers to arch_system.o(.constdata) for gap_cfg_user_var_struct
    arch_rom.o(.text) refers to jump_table.o(.constdata) for rom_func_addr_table_var
    arch_rom.o(.text) refers to jump_table.o(.constdata) for rom_cfg_table_var
    gpio.o(.text) refers to user_periph_setup.o(.text) for GPIO_reservations
    gpio.o(.text) refers to gpio.o(retention_mem_area0) for retention_mem_area0
    gpio.o(.text) refers to gpio.o(.constdata) for .constdata
    gpio.o(.text) refers to gpio.o(retention_mem_area0) for retention_mem_area0
    gpio.o(.text) refers to gpio.o(retention_mem_area0) for retention_mem_area0
    gpio.o(.text) refers to gpio.o(.text) for gpioshift16
    gpio.o(.text) refers to gpio.o(retention_mem_area0) for retention_mem_area0
    gpio.o(.text) refers to gpio.o(.text) for gpioshift16
    gpio.o(.text) refers to gpio.o(retention_mem_area0) for retention_mem_area0
    wkupct_quadec.o(.text) refers to syscntl.o(.text) for syscntl_use_highest_amba_clocks
    wkupct_quadec.o(.text) refers to wkupct_quadec.o(retention_mem_area0) for retention_mem_area0
    wkupct_quadec.o(.text) refers to wkupct_quadec.o(.text) for __NVIC_SetPriority
    wkupct_quadec.o(.text) refers to wkupct_quadec.o(.text) for __NVIC_EnableIRQ
    wkupct_quadec.o(.text) refers to wkupct_quadec.o(.text) for wkupct_quad_disable_IRQ
    wkupct_quadec.o(.text) refers to wkupct_quadec.o(retention_mem_area0) for retention_mem_area0
    wkupct_quadec.o(.text) refers to wkupct_quadec.o(retention_mem_area0) for retention_mem_area0
    wkupct_quadec.o(.text) refers to wkupct_quadec.o(.text) for wkupct_quad_disable_IRQ
    wkupct_quadec.o(.text) refers to wkupct_quadec.o(.text) for quad_decoder_disable_irq
    wkupct_quadec.o(.text) refers to wkupct_quadec.o(.text) for __NVIC_SetPriority
    wkupct_quadec.o(.text) refers to wkupct_quadec.o(.text) for __NVIC_EnableIRQ
    battery.o(.text) refers to adc_58x.o(.text) for adc_offset_calibrate
    battery.o(.text) refers to adc_58x.o(.text) for adc_get_vbat_sample
    battery.o(.text) refers to battery.o(.text) for battery_filter_value
    battery.o(.text) refers to battery.o(.constdata) for .constdata
    battery.o(.constdata) refers to battery.o(.text) for batt_cal_cr2032
    adc_58x.o(.text) refers to adc_58x.o(.constdata) for .constdata
    adc_58x.o(.text) refers to adc_58x.o(retention_mem_area0) for retention_mem_area0
    adc_58x.o(.text) refers to adc_58x.o(.text) for __NVIC_DisableIRQ
    adc_58x.o(.text) refers to adc_58x.o(retention_mem_area0) for retention_mem_area0
    adc_58x.o(.text) refers to adc_58x.o(.text) for __NVIC_DisableIRQ
    adc_58x.o(.text) refers to adc_58x.o(retention_mem_area0) for retention_mem_area0
    adc_58x.o(.text) refers to adc_58x.o(.text) for adc_enable
    adc_58x.o(.text) refers to adc_58x.o(.text) for adc_usDelay
    spi_58x.o(.text) refers to gpio.o(.text) for GPIO_SetActive
    spi_58x.o(.text) refers to spi_58x.o(retention_mem_area0) for retention_mem_area0
    spi_58x.o(.text) refers to spi_58x.o(.text) for spi_cs_high
    spi_58x.o(.text) refers to spi_58x.o(retention_mem_area0) for retention_mem_area0
    spi_58x.o(.text) refers to spi_58x.o(.text) for spi_cs_high
    spi_58x.o(.text) refers to spi_58x.o(.text) for spi_enable
    spi_58x.o(.text) refers to spi_58x.o(retention_mem_area0) for retention_mem_area0
    spi_58x.o(.text) refers to gpio.o(.text) for GPIO_SetInactive
    spi_58x.o(.text) refers to spi_58x.o(retention_mem_area0) for retention_mem_area0
    spi_58x.o(.text) refers to spi_58x.o(.text) for wait_spi_to_finish
    spi_58x.o(.text) refers to spi_58x.o(.text) for wait_spi_to_finish
    spi_58x.o(.text) refers to spi_58x.o(.text) for wait_spi_to_finish
    spi_58x.o(.text) refers to spi_58x.o(.text) for spi_cs_low
    spi_58x.o(.text) refers to spi_58x.o(.text) for spi_access
    spi_58x.o(.text) refers to spi_58x.o(.text) for spi_cs_high
    spi_flash.o(.text) refers to spi_58x.o(.text) for spi_set_bitmode
    spi_flash.o(.text) refers to spi_58x.o(.text) for spi_transaction
    spi_flash.o(.text) refers to spi_flash.o(.text) for spi_flash_read_status_reg
    spi_flash.o(.text) refers to spi_flash.o(.text) for spi_flash_read_status_reg
    spi_flash.o(.text) refers to spi_flash.o(.bss) for .bss
    spi_flash.o(.text) refers to spi_58x.o(.text) for spi_cs_low
    spi_flash.o(.text) refers to spi_58x.o(.text) for spi_cs_high
    spi_flash.o(.text) refers to spi_58x.o(.text) for spi_set_bitmode
    spi_flash.o(.text) refers to spi_58x.o(.text) for spi_transaction
    spi_flash.o(.text) refers to spi_58x.o(.text) for spi_initialize
    spi_flash.o(.text) refers to spi_flash.o(.text) for spi_flash_release_from_power_down
    spi_flash.o(.text) refers to spi_flash.o(.text) for spi_flash_configure_env
    spi_flash.o(.text) refers to spi_flash.o(.text) for spi_flash_is_busy
    spi_flash.o(.text) refers to spi_58x.o(.text) for spi_set_bitmode
    spi_flash.o(.text) refers to spi_58x.o(.text) for spi_cs_low
    spi_flash.o(.text) refers to spi_58x.o(.text) for spi_access
    spi_flash.o(.text) refers to spi_58x.o(.text) for spi_cs_high
    spi_flash.o(.text) refers to spi_flash.o(.text) for spi_flash_read_jedec_id
    spi_flash.o(.text) refers to spi_flash.o(.text) for spi_flash_configure_env
    spi_flash.o(.text) refers to spi_flash.o(.constdata) for .constdata
    spi_flash.o(.text) refers to spi_58x.o(.text) for spi_initialize
    spi_flash.o(.text) refers to spi_flash.o(.text) for spi_flash_release_from_power_down
    spi_flash.o(.text) refers to spi_flash.o(.text) for spi_flash_auto_detect
    spi_flash.o(.text) refers to spi_flash.o(.text) for spi_flash_is_busy
    spi_flash.o(.text) refers to spi_58x.o(.text) for spi_set_bitmode
    spi_flash.o(.text) refers to spi_58x.o(.text) for spi_transaction
    spi_flash.o(.text) refers to spi_flash.o(.text) for spi_flash_is_busy
    spi_flash.o(.text) refers to spi_58x.o(.text) for spi_set_bitmode
    spi_flash.o(.text) refers to spi_58x.o(.text) for spi_transaction
    spi_flash.o(.text) refers to spi_flash.o(.text) for spi_flash_is_busy
    spi_flash.o(.text) refers to spi_58x.o(.text) for spi_set_bitmode
    spi_flash.o(.text) refers to spi_58x.o(.text) for spi_transaction
    spi_flash.o(.text) refers to spi_flash.o(.text) for spi_flash_wait_till_ready
    spi_flash.o(.text) refers to spi_flash.o(.text) for spi_flash_read_status_reg
    spi_flash.o(.text) refers to spi_flash.o(.text) for spi_flash_write_enable
    spi_flash.o(.text) refers to spi_flash.o(.text) for spi_flash_write_enable
    spi_flash.o(.text) refers to spi_flash.o(.text) for spi_flash_is_busy
    spi_flash.o(.text) refers to spi_58x.o(.text) for spi_set_bitmode
    spi_flash.o(.text) refers to spi_58x.o(.text) for spi_transaction
    spi_flash.o(.text) refers to spi_flash.o(.text) for spi_flash_wait_till_ready
    spi_flash.o(.text) refers to spi_flash.o(.text) for spi_flash_read_status_reg
    spi_flash.o(.text) refers to spi_flash.o(.text) for spi_flash_is_busy
    spi_flash.o(.text) refers to spi_58x.o(.text) for spi_set_bitmode
    spi_flash.o(.text) refers to spi_58x.o(.text) for spi_transaction
    spi_flash.o(.text) refers to spi_flash.o(.text) for spi_flash_wait_till_ready
    spi_flash.o(.text) refers to spi_58x.o(.text) for spi_set_bitmode
    spi_flash.o(.text) refers to spi_58x.o(.text) for spi_transaction
    spi_flash.o(.text) refers to spi_flash.o(.text) for spi_flash_set_write_enable
    spi_flash.o(.text) refers to spi_flash.o(.text) for spi_flash_wait_till_ready
    spi_flash.o(.text) refers to spi_58x.o(.text) for spi_set_bitmode
    spi_flash.o(.text) refers to spi_58x.o(.text) for spi_transaction
    spi_flash.o(.text) refers to spi_58x.o(.text) for spi_set_bitmode
    spi_flash.o(.text) refers to spi_58x.o(.text) for spi_transaction
    spi_flash.o(.text) refers to spi_flash.o(.text) for spi_flash_read_config_reg
    spi_flash.o(.text) refers to spi_flash.o(.text) for spi_flash_read_config_reg
    spi_flash.o(.text) refers to spi_flash.o(.text) for spi_flash_read_status_reg
    spi_flash.o(.text) refers to spi_flash.o(.text) for spi_flash_write_status_config_reg
    spi_flash.o(.text) refers to spi_flash.o(.text) for spi_flash_is_busy
    spi_flash.o(.text) refers to spi_58x.o(.text) for spi_set_bitmode
    spi_flash.o(.text) refers to spi_58x.o(.text) for spi_cs_low
    spi_flash.o(.text) refers to spi_58x.o(.text) for spi_access
    spi_flash.o(.text) refers to spi_58x.o(.text) for spi_cs_high
    spi_flash.o(.text) refers to spi_flash.o(.text) for spi_flash_is_busy
    spi_flash.o(.text) refers to spi_58x.o(.text) for spi_set_bitmode
    spi_flash.o(.text) refers to spi_58x.o(.text) for spi_cs_low
    spi_flash.o(.text) refers to spi_58x.o(.text) for spi_access
    spi_flash.o(.text) refers to spi_58x.o(.text) for spi_cs_high
    spi_flash.o(.text) refers to spi_flash.o(.text) for spi_flash_is_busy
    spi_flash.o(.text) refers to spi_flash.o(.text) for spi_flash_write_enable
    spi_flash.o(.text) refers to spi_58x.o(.text) for spi_set_bitmode
    spi_flash.o(.text) refers to spi_58x.o(.text) for spi_transaction
    spi_flash.o(.text) refers to spi_flash.o(.text) for spi_flash_wait_till_ready
    spi_flash.o(.text) refers to spi_flash.o(.text) for spi_flash_is_busy
    spi_flash.o(.text) refers to spi_flash.o(.text) for spi_flash_write_enable
    spi_flash.o(.text) refers to spi_58x.o(.text) for spi_set_bitmode
    spi_flash.o(.text) refers to spi_58x.o(.text) for spi_transaction
    spi_flash.o(.text) refers to spi_flash.o(.text) for spi_flash_wait_till_ready
    spi_flash.o(.text) refers to spi_flash.o(.text) for spi_flash_is_busy
    spi_flash.o(.text) refers to spi_flash.o(.text) for spi_flash_write_enable
    spi_flash.o(.text) refers to spi_58x.o(.text) for spi_set_bitmode
    spi_flash.o(.text) refers to spi_58x.o(.text) for spi_transaction
    spi_flash.o(.text) refers to spi_flash.o(.text) for spi_flash_is_busy
    spi_flash.o(.text) refers to spi_flash.o(.text) for spi_flash_write_enable
    spi_flash.o(.text) refers to spi_58x.o(.text) for spi_set_bitmode
    spi_flash.o(.text) refers to spi_58x.o(.text) for spi_transaction
    spi_flash.o(.text) refers to spi_flash.o(.text) for spi_flash_wait_till_ready
    spi_flash.o(.text) refers to spi_flash.o(.text) for spi_flash_is_busy
    spi_flash.o(.text) refers to spi_flash.o(.text) for spi_flash_chip_erase
    spi_flash.o(.text) refers to spi_flash.o(.text) for spi_flash_read_security_reg
    spi_flash.o(.text) refers to spi_flash.o(.text) for spi_flash_is_busy
    spi_flash.o(.text) refers to spi_flash.o(.text) for spi_flash_write_enable
    spi_flash.o(.text) refers to spi_58x.o(.text) for spi_set_bitmode
    spi_flash.o(.text) refers to spi_58x.o(.text) for spi_cs_low
    spi_flash.o(.text) refers to spi_58x.o(.text) for spi_access
    spi_flash.o(.text) refers to spi_58x.o(.text) for spi_cs_high
    spi_flash.o(.text) refers to spi_flash.o(.text) for spi_flash_wait_till_ready
    spi_flash.o(.text) refers to spi_flash.o(.text) for spi_flash_is_busy
    spi_flash.o(.text) refers to spi_flash.o(.text) for spi_flash_write_enable
    spi_flash.o(.text) refers to spi_58x.o(.text) for spi_set_bitmode
    spi_flash.o(.text) refers to spi_58x.o(.text) for spi_cs_low
    spi_flash.o(.text) refers to spi_58x.o(.text) for spi_access
    spi_flash.o(.text) refers to spi_58x.o(.text) for spi_send
    spi_flash.o(.text) refers to spi_58x.o(.text) for spi_cs_high
    spi_flash.o(.text) refers to spi_flash.o(.text) for spi_flash_wait_till_ready
    spi_flash.o(.text) refers to spi_58x.o(.text) for spi_set_bitmode
    spi_flash.o(.text) refers to spi_flash.o(.text) for spi_flash_page_program
    spi_flash.o(.text) refers to spi_flash.o(.bss) for .bss
    spi_flash.o(.text) refers to spi_58x.o(.text) for spi_set_bitmode
    spi_flash.o(.text) refers to spi_flash.o(.text) for spi_flash_page_program_buffer
    spi_flash.o(.text) refers to spi_flash.o(.bss) for .bss
    spi_flash.o(.text) refers to spi_flash.o(.text) for spi_flash_is_busy
    spi_flash.o(.text) refers to spi_flash.o(.text) for spi_flash_write_enable
    spi_flash.o(.text) refers to spi_58x.o(.text) for spi_set_bitmode
    spi_flash.o(.text) refers to spi_58x.o(.text) for spi_cs_low
    spi_flash.o(.text) refers to spi_58x.o(.text) for spi_access
    spi_flash.o(.text) refers to spi_58x.o(.text) for spi_cs_high
    spi_flash.o(.text) refers to spi_flash.o(.text) for spi_flash_wait_till_ready
    spi_flash.o(.text) refers to spi_58x.o(.text) for spi_set_bitmode
    spi_flash.o(.text) refers to spi_flash.o(.text) for spi_flash_page_fill
    spi_flash.o(.text) refers to spi_flash.o(.bss) for .bss
    spi_flash.o(.text) refers to spi_flash.o(.text) for spi_flash_read_security_reg
    spi_flash.o(.text) refers to spi_flash.o(.text) for spi_flash_is_busy
    spi_flash.o(.text) refers to spi_58x.o(.text) for spi_set_bitmode
    spi_flash.o(.text) refers to spi_58x.o(.text) for spi_cs_low
    spi_flash.o(.text) refers to spi_58x.o(.text) for spi_access
    spi_flash.o(.text) refers to spi_58x.o(.text) for spi_cs_high
    spi_flash.o(.text) refers to spi_flash.o(.bss) for .bss
    spi_flash.o(.text) refers to spi_flash.o(.text) for spi_flash_is_busy
    spi_flash.o(.text) refers to spi_58x.o(.text) for spi_set_bitmode
    spi_flash.o(.text) refers to spi_58x.o(.text) for spi_cs_low
    spi_flash.o(.text) refers to spi_58x.o(.text) for spi_access
    spi_flash.o(.text) refers to spi_58x.o(.text) for spi_receive
    spi_flash.o(.text) refers to spi_58x.o(.text) for spi_cs_high
    spi_flash.o(.text) refers to spi_flash.o(.bss) for .bss
    spi_flash.o(.text) refers to spi_flash.o(.text) for spi_flash_read_data
    spi_flash.o(.text) refers to spi_flash.o(.text) for spi_flash_is_page_empty
    spi_flash.o(.text) refers to spi_flash.o(.text) for spi_flash_is_sector_empty
    spi_flash.o(.text) refers to spi_flash.o(.bss) for .bss
    i2c.o(.text) refers to i2c.o(.text) for i2c_setup_slave
    i2c.o(.text) refers to i2c.o(.text) for i2c_setup_master
    i2c.o(.text) refers to i2c.o(.bss) for .bss
    i2c.o(.text) refers to i2c.o(.text) for i2c_register_int
    i2c.o(.text) refers to i2c.o(.text) for __NVIC_ClearPendingIRQ
    i2c.o(.text) refers to i2c.o(.text) for i2c_unregister_int
    i2c.o(.text) refers to i2c.o(.bss) for .bss
    i2c.o(.text) refers to i2c.o(.text) for tx_reply
    i2c.o(.text) refers to i2c.o(.bss) for .bss
    i2c.o(.text) refers to i2c.o(.text) for i2c_register_int
    i2c.o(.text) refers to i2c.o(.bss) for .bss
    i2c.o(.text) refers to i2c.o(.text) for intr_master_transmit_buffer_handler
    i2c.o(.text) refers to i2c.o(.text) for i2c_unregister_int
    i2c.o(.text) refers to i2c.o(.bss) for .bss
    i2c.o(.text) refers to i2c.o(.text) for rx_reply
    i2c.o(.text) refers to i2c.o(.bss) for .bss
    i2c.o(.text) refers to i2c.o(.text) for i2c_register_int
    i2c.o(.text) refers to i2c.o(.bss) for .bss
    i2c.o(.text) refers to i2c.o(.text) for intr_master_receive_buffer_handler
    i2c.o(.text) refers to i2c.o(.text) for rx_reply
    i2c.o(.text) refers to i2c.o(.bss) for .bss
    i2c.o(.text) refers to i2c.o(.text) for i2c_register_int
    i2c.o(.text) refers to i2c.o(.bss) for .bss
    i2c.o(.text) refers to i2c.o(.text) for intr_slave_receive_buffer_handler
    i2c.o(.text) refers to i2c.o(.text) for tx_reply
    i2c.o(.text) refers to i2c.o(.bss) for .bss
    i2c.o(.text) refers to i2c.o(.text) for i2c_register_int
    i2c.o(.text) refers to i2c.o(.bss) for .bss
    i2c.o(.text) refers to i2c.o(.text) for intr_slave_transmit_buffer_handler
    i2c.o(.text) refers to i2c.o(.bss) for .bss
    i2c_eeprom.o(.text) refers to i2c_eeprom.o(retention_mem_area0) for retention_mem_area0
    i2c_eeprom.o(.text) refers to i2c_eeprom.o(retention_mem_area0) for retention_mem_area0
    i2c_eeprom.o(.text) refers to i2c.o(.text) for i2c_init
    i2c_eeprom.o(.text) refers to i2c_eeprom.o(retention_mem_area0) for retention_mem_area0
    i2c_eeprom.o(.text) refers to i2c.o(.text) for i2c_release
    i2c_eeprom.o(.text) refers to i2c.o(.text) for i2c_release
    i2c_eeprom.o(.text) refers to i2c_eeprom.o(retention_mem_area0) for retention_mem_area0
    i2c_eeprom.o(.text) refers to i2c_eeprom.o(retention_mem_area0) for retention_mem_area0
    i2c_eeprom.o(.text) refers to i2c_eeprom.o(.text) for i2c_wait_until_eeprom_ready
    i2c_eeprom.o(.text) refers to i2c_eeprom.o(.text) for i2c_eeprom_send_address
    i2c_eeprom.o(.text) refers to i2c_eeprom.o(.text) for i2c_eeprom_send_address
    i2c_eeprom.o(.text) refers to i2c_eeprom.o(.text) for i2c_wait_until_eeprom_ready
    i2c_eeprom.o(.text) refers to i2c_eeprom.o(.text) for read_data_single
    i2c_eeprom.o(.text) refers to i2c_eeprom.o(retention_mem_area0) for retention_mem_area0
    i2c_eeprom.o(.text) refers to i2c_eeprom.o(.text) for i2c_wait_until_eeprom_ready
    i2c_eeprom.o(.text) refers to i2c_eeprom.o(.text) for i2c_eeprom_send_address
    i2c_eeprom.o(.text) refers to i2c_eeprom.o(.text) for i2c_wait_until_eeprom_ready
    i2c_eeprom.o(.text) refers to i2c_eeprom.o(.text) for i2c_eeprom_send_address
    i2c_eeprom.o(.text) refers to i2c_eeprom.o(retention_mem_area0) for retention_mem_area0
    i2c_eeprom.o(.text) refers to i2c_eeprom.o(.text) for i2c_eeprom_write_page
    i2c_eeprom.o(.text) refers to i2c_eeprom.o(retention_mem_area0) for retention_mem_area0
    hw_otpc_58x.o(.text) refers to hw_otpc_58x.o(.constdata) for .constdata
    hw_otpc_58x.o(.text) refers to hw_otpc_58x.o(.text) for hw_otpc_num_of_rr
    hw_otpc_58x.o(.text) refers to hw_otpc_58x.o(.text) for hw_otpc_manual_word_prog
    hw_otpc_58x.o(.text) refers to hw_otpc_58x.o(.text) for manual_prog_verify
    hw_otpc_58x.o(.text) refers to hw_otpc_58x.o(.text) for hw_otpc_write_rr
    hw_otpc_58x.o(.text) refers to hw_otpc_58x.o(.text) for hw_otpc_manual_read_on
    hw_otpc_58x.o(.text) refers to hw_otpc_58x.o(.text) for hw_otpc_manual_read_off
    hw_otpc_58x.o(.text) refers to hw_otpc_58x.o(.text) for hw_otpc_manual_word_prog
    hw_otpc_58x.o(.text) refers to hw_otpc_58x.o(.text) for wait_for_auto_done
    hw_otpc_58x.o(.text) refers to hw_otpc_58x.o(.text) for wait_for_auto_done
    hw_otpc_58x.o(.text) refers to hw_otpc_58x.o(.text) for wait_for_auto_done
    hw_otpc_58x.o(.text) refers to hw_otpc_58x.o(.text) for wait_for_auto_done
    hw_otpc_58x.o(.text) refers to hw_otpc_58x.o(.text) for hw_otpc_core_test
    hw_otpc_58x.o(.text) refers to hw_otpc_58x.o(.text) for hw_otpc_core_test
    hw_otpc_58x.o(.text) refers to hw_otpc_58x.o(.text) for hw_otpc_core_test
    uart.o(.text) refers to uart.o(retention_mem_area0) for retention_mem_area0
    uart.o(.text) refers to uart.o(retention_mem_area0) for retention_mem_area0
    uart.o(.text) refers to uart.o(retention_mem_area0) for retention_mem_area0
    uart.o(.text) refers to uart.o(.text) for uart_read_byte
    uart.o(.text) refers to uart.o(.text) for uart_read_buffer
    uart.o(.text) refers to uart.o(.text) for __NVIC_DisableIRQ
    uart.o(.text) refers to uart.o(retention_mem_area0) for retention_mem_area0
    uart.o(.text) refers to uart.o(.text) for uart_enable_flow_control
    trng.o(.text) refers to rf_585.o(.text) for rf_regs
    trng.o(.text) refers to trng.o(trng_buffer_area_zi) for trng_buffer_area_zi
    trng.o(.text) refers to trng.o(.bss) for .bss
    rwble.o(.text) refers to arch_system.o(.text) for lld_sleep_lpcycles_2_us_sel_func
    rwble.o(.text) refers to syscntl.o(.text) for syscntl_use_highest_amba_clocks
    rwble.o(.text) refers to rwip.o(.text) for patched_ble_regs_pop
    rwble.o(.text) refers to user_periph_setup.o(.text) for periph_init
    rwble.o(.text) refers to adc_58x.o(.text) for adc_get_vbat_sample
    rwble.o(.text) refers to rwble.o(retention_mem_area0) for retention_mem_area0
    rwble.o(.text) refers to rwip.o(retention_mem_area0) for slp_period_retained
    rwble.o(.text) refers to rwip.o(retention_mem_area0) for sleep_lp_cycles
    rwble.o(.text) refers to rwble.o(.bss) for .bss
    rwble.o(.text) refers to arch_system.o(retention_mem_area0) for clk_freq_trim_reg_value
    rwip.o(.text) refers to arch_sleep.o(.text) for arch_ble_ext_wakeup_get
    rwip.o(.text) refers to arch_system.o(.text) for check_sys_startup_period
    rwip.o(.text) refers to syscntl.o(.text) for syscntl_use_lowest_amba_clocks
    rwip.o(.text) refers to rwip.o(retention_mem_area0) for retention_mem_area0
    rwip.o(.text) refers to rwble.o(retention_mem_area0) for twirq_set
    rf_585.o(.text) refers to arch_system.o(.text) for get_rc16m_count
    rf_585.o(.text) refers to rf_calibration.o(.text) for rf_calibration_585
    rf_585.o(.text) refers to arch_system.o(retention_mem_area0) for iq_trim_rf_mixer_ctrl1_reg
    rf_585.o(.text) refers to rf_585.o(retention_mem_area0) for retention_mem_area0
    rf_585.o(.text) refers to rf_585.o(retention_mem_area0) for retention_mem_area0
    rf_585.o(.text) refers to rf_585.o(retention_mem_area0) for retention_mem_area0
    rf_585.o(.text) refers to rf_585.o(retention_mem_area0) for retention_mem_area0
    custom_common.o(.text) refers to prf.o(.text) for prf_env_get
    diss.o(.text) refers to diss.o(.constdata) for .constdata
    diss.o(.text) refers to diss_task.o(.constdata) for diss_default_handler
    diss.o(.constdata) refers to diss.o(.text) for diss_init
    diss_task.o(.text) refers to prf.o(.text) for prf_env_get
    diss_task.o(.text) refers to diss.o(.text) for diss_value_to_handle
    diss_task.o(.constdata) refers to diss_task.o(.text) for diss_set_value_req_handler
    diss_task.o(.constdata) refers to diss_task.o(.constdata) for diss_default_state
    custs1.o(.text) refers to attm_db_128.o(.text) for attm_svc_create_db_128
    custs1.o(.text) refers to custs1_task.o(.text) for custs1_init_ccc_values
    custs1.o(.text) refers to prf.o(.text) for prf_src_task_get
    custs1.o(.text) refers to user_custs1_def.o(.constdata) for custs1_att_db
    custs1.o(.text) refers to user_custs1_def.o(.constdata) for custs1_services
    custs1.o(.text) refers to user_custs1_def.o(.constdata) for custs1_services_size
    custs1.o(.text) refers to user_custs1_def.o(.constdata) for custs1_att_max_nb
    custs1.o(.text) refers to custs1_task.o(.constdata) for custs1_default_handler
    custs1.o(.text) refers to custs1.o(.constdata) for .constdata
    custs1.o(.constdata) refers to custs1.o(.text) for custs1_init
    custs1_task.o(.text) refers to prf.o(.text) for prf_env_get
    custs1_task.o(.text) refers to custom_common.o(.text) for get_cfg_handle
    custs1_task.o(.text) refers to app_customs.o(.text) for custs_get_func_callbacks
    custs1_task.o(.constdata) refers to custs1_task.o(.text) for gattc_read_req_ind_handler
    custs1_task.o(.constdata) refers to custs1_task.o(.constdata) for custs1_default_state
    prf.o(.text) refers to custs1.o(.text) for custs1_prf_itf_get
    prf.o(.text) refers to diss.o(.text) for diss_prf_itf_get
    prf.o(.text) refers to prf.o(retention_mem_area0) for retention_mem_area0
    prf.o(.text) refers to prf.o(.text) for prf_itf_get
    prf.o(.text) refers to prf.o(retention_mem_area0) for retention_mem_area0
    app_default_handlers.o(.text) refers to app.o(.text) for app_easy_gap_undirected_advertise_start
    app_default_handlers.o(.text) refers to app_diss.o(.text) for app_dis_init
    app_default_handlers.o(.text) refers to app.o(.text) for prf_init_srv_perm
    app_default_handlers.o(.text) refers to arch_sleep.o(.text) for arch_set_sleep_mode
    app_default_handlers.o(.text) refers to user_peripheral.o(.text) for user_app_adv_start
    app_default_handlers.o(.text) refers to app.o(retention_mem_area0) for app_env
    app_default_handlers.o(.text) refers to user_peripheral.o(.text) for user_app_adv_start
    app_default_handlers.o(.text) refers to hw_otpc_58x.o(.text) for hw_otpc_manual_read_on
    app_default_handlers.o(.text) refers to hash.o(.text) for hash
    app_default_handlers.o(.constdata) refers to user_peripheral.o(.text) for user_app_adv_start
    app.o(.text) refers to app.o(.constdata) for .constdata
    app.o(.text) refers to app.o(retention_mem_area0) for retention_mem_area0
    app.o(.text) refers to user_custs_config.o(.constdata) for cust_prf_funcs
    app.o(.text) refers to app.o(.text) for append_device_name
    app.o(.text) refers to app.o(retention_mem_area0) for retention_mem_area0
    app.o(.text) refers to app.o(retention_mem_area0) for retention_mem_area0
    app.o(.text) refers to app.o(.constdata) for .constdata
    app.o(.text) refers to app.o(retention_mem_area0) for retention_mem_area0
    app.o(.text) refers to app.o(.text) for app_easy_gap_advertise_stop
    app.o(.text) refers to app.o(retention_mem_area0) for retention_mem_area0
    app.o(.text) refers to app.o(retention_mem_area0) for retention_mem_area0
    app.o(.text) refers to app.o(retention_mem_area0) for retention_mem_area0
    app.o(.text) refers to app.o(retention_mem_area0) for retention_mem_area0
    app.o(.text) refers to app.o(.text) for app_easy_gap_directed_advertise_start_create_msg
    app.o(.text) refers to app.o(.text) for app_easy_gap_directed_advertise_start_create_msg
    app.o(.text) refers to app.o(retention_mem_area0) for retention_mem_area0
    app.o(.text) refers to app.o(.text) for app_easy_gap_non_connectable_advertise_start_create_msg
    app.o(.text) refers to app.o(.text) for app_easy_gap_non_connectable_advertise_start_create_msg
    app.o(.text) refers to app.o(retention_mem_area0) for retention_mem_area0
    app.o(.text) refers to app_easy_timer.o(.text) for app_easy_timer_cancel
    app.o(.text) refers to app.o(.text) for app_easy_gap_undirected_advertise_start
    app.o(.text) refers to app.o(retention_mem_area0) for retention_mem_area0
    app.o(.text) refers to app.o(.text) for app_easy_gap_advertise_stop_handler
    app.o(.text) refers to app_easy_timer.o(.text) for app_easy_timer_cancel
    app.o(.text) refers to app.o(retention_mem_area0) for retention_mem_area0
    app.o(.text) refers to app.o(.text) for app_easy_gap_param_update_msg_create
    app.o(.text) refers to app.o(.text) for app_easy_gap_start_connection_to_msg_create
    app.o(.text) refers to app.o(.text) for app_easy_gap_start_connection_to_msg_create
    app.o(.text) refers to app.o(.text) for app_easy_gap_start_connection_to_msg_create
    app.o(.text) refers to app.o(retention_mem_area0) for retention_mem_area0
    app.o(.text) refers to app.o(.text) for app_easy_gap_dev_config_create_msg
    app.o(.text) refers to app.o(retention_mem_area0) for retention_mem_area0
    app.o(.constdata) refers to app_diss.o(.text) for app_diss_create_db
    app.o(.constdata) refers to app_task.o(.constdata) for app_default_handler
    app.o(.constdata) refers to app_task.o(retention_mem_area0) for app_state
    app_task.o(.text) refers to user_peripheral.o(.text) for user_catch_rest_hndl
    app_task.o(.text) refers to app.o(.text) for app_easy_gap_dev_configure
    app_task.o(.text) refers to app_default_handlers.o(.text) for default_app_on_set_dev_config_complete
    app_task.o(.text) refers to app_entry_point.o(.text) for app_std_process_event
    app_task.o(.text) refers to app.o(retention_mem_area0) for app_env
    app_task.o(.text) refers to app_task.o(.constdata) for .constdata
    app_task.o(.constdata) refers to user_peripheral.o(.text) for user_app_connection
    app_task.o(.constdata) refers to app_default_handlers.o(.text) for default_app_on_set_dev_config_complete
    app_task.o(.constdata) refers to app_default_handlers.o(.text) for default_app_generate_static_random_addr
    app_task.o(.constdata) refers to app_task.o(.text) for gapm_device_ready_ind_handler
    app_task.o(.constdata) refers to app_entry_point.o(.text) for app_entry_point_handler
    app_task.o(.constdata) refers to app_task.o(.constdata) for app_default_state
    app_diss.o(.text) refers to app.o(.text) for get_user_prf_srv_perm
    app_diss_task.o(.text) refers to app_entry_point.o(.text) for app_std_process_event
    app_diss_task.o(.text) refers to app_diss_task.o(.constdata) for .constdata
    app_diss_task.o(.constdata) refers to app_diss_task.o(.text) for diss_value_req_ind_handler
    app_entry_point.o(.text) refers to user_peripheral.o(.text) for user_catch_rest_hndl
    app_entry_point.o(.text) refers to app_entry_point.o(.constdata) for .constdata
    app_entry_point.o(.constdata) refers to app_task.o(.text) for app_gap_process_handler
    app_entry_point.o(.constdata) refers to app_easy_timer.o(.text) for app_timer_api_process_handler
    app_entry_point.o(.constdata) refers to app_diss_task.o(.text) for app_diss_process_handler
    app_entry_point.o(.constdata) refers to app_customs_task.o(.text) for app_custs1_process_handler
    app_msg_utils.o(.text) refers to app_msg_utils.o(.text) for app_check_BLE_active
    app_msg_utils.o(.text) refers to arch_sleep.o(.text) for arch_ble_force_wakeup
    app_easy_msg_utils.o(.text) refers to app_easy_msg_utils.o(.text) for app_easy_msg_find_idx
    app_easy_msg_utils.o(.text) refers to app_easy_msg_utils.o(retention_mem_area0) for retention_mem_area0
    app_easy_msg_utils.o(.text) refers to app_easy_msg_utils.o(retention_mem_area0) for retention_mem_area0
    app_easy_msg_utils.o(.text) refers to app_easy_msg_utils.o(.text) for app_easy_msg_find_idx
    app_easy_msg_utils.o(.text) refers to app_easy_msg_utils.o(retention_mem_area0) for retention_mem_area0
    app_easy_msg_utils.o(.text) refers to app_easy_msg_utils.o(.text) for app_easy_msg_modify
    app_easy_msg_utils.o(.text) refers to app_easy_msg_utils.o(.text) for app_easy_msg_set
    app_easy_msg_utils.o(.text) refers to app_easy_msg_utils.o(retention_mem_area0) for retention_mem_area0
    app_easy_msg_utils.o(.text) refers to app_easy_msg_utils.o(.text) for app_easy_msg_free_callback
    app_easy_msg_utils.o(.text) refers to app_easy_msg_utils.o(retention_mem_area0) for retention_mem_area0
    app_easy_msg_utils.o(.text) refers to app_easy_msg_utils.o(retention_mem_area0) for retention_mem_area0
    app_easy_msg_utils.o(.text) refers to app_easy_msg_utils.o(.text) for app_easy_msg_find_idx
    app_easy_msg_utils.o(.text) refers to app_easy_msg_utils.o(retention_mem_area0) for retention_mem_area0
    app_easy_timer.o(.text) refers to app_msg_utils.o(.text) for app_check_BLE_active
    app_easy_timer.o(.text) refers to arch_sleep.o(.text) for arch_ble_force_wakeup
    app_easy_timer.o(.text) refers to app_easy_timer.o(.text) for timer_modified_handler
    app_easy_timer.o(.text) refers to app_easy_timer.o(retention_mem_area0) for retention_mem_area0
    app_easy_timer.o(.text) refers to app_easy_timer.o(.text) for timer_canceled_handler
    app_easy_timer.o(.text) refers to app_easy_timer.o(retention_mem_area0) for retention_mem_area0
    app_easy_timer.o(.text) refers to app_easy_timer.o(.text) for timer_modified_handler
    app_easy_timer.o(.text) refers to app_easy_timer.o(.text) for app_easy_timer_cancel
    app_easy_timer.o(.text) refers to app_easy_timer.o(retention_mem_area0) for retention_mem_area0
    app_easy_timer.o(.text) refers to app_easy_timer.o(.text) for timer_canceled_handler
    app_customs.o(.text) refers to app.o(.text) for get_user_prf_srv_perm
    app_customs.o(.text) refers to user_custs_config.o(.constdata) for cust_prf_funcs
    app_customs_task.o(.text) refers to app_entry_point.o(.text) for app_std_process_event
    user_custs_config.o(.constdata) refers to user_custs1_def.o(.constdata) for custs1_att_db
    user_custs_config.o(.constdata) refers to app_customs.o(.text) for app_custs1_create_db
    user_custs1_def.o(.constdata) refers to user_custs1_def.o(.constdata) for att_decl_svc
    user_custs1_def.o(.constdata) refers to user_custs1_def.o(.constdata) for custs1_svc1
    user_custs1_def.o(.constdata) refers to user_custs1_def.o(.constdata) for att_decl_char
    user_custs1_def.o(.constdata) refers to user_custs1_def.o(.constdata) for SVC1_CTRL_POINT_UUID_128
    user_custs1_def.o(.constdata) refers to user_custs1_def.o(.constdata) for att_desc_user_desc
    user_custs1_def.o(.constdata) refers to user_custs1_def.o(.conststring) for .conststring
    user_custs1_def.o(.constdata) refers to user_custs1_def.o(.constdata) for SVC1_LED_STATE_UUID_128
    user_custs1_def.o(.constdata) refers to user_custs1_def.o(.constdata) for SVC1_ADC_VAL_1_UUID_128
    user_custs1_def.o(.constdata) refers to user_custs1_def.o(.constdata) for att_desc_cfg
    user_custs1_def.o(.constdata) refers to user_custs1_def.o(.constdata) for SVC1_ADC_VAL_2_UUID_128
    user_custs1_def.o(.constdata) refers to user_custs1_def.o(.constdata) for SVC1_BUTTON_STATE_UUID_128
    user_custs1_def.o(.constdata) refers to user_custs1_def.o(.constdata) for SVC1_INDICATEABLE_UUID_128
    user_custs1_def.o(.constdata) refers to user_custs1_def.o(.constdata) for SVC1_LONG_VALUE_UUID_128
    user_custs1_def.o(.constdata) refers to user_custs1_def.o(.constdata) for custs1_svc2
    user_custs1_def.o(.constdata) refers to user_custs1_def.o(.constdata) for SVC2_WRITE_VAL_1_UUID_128
    user_custs1_def.o(.constdata) refers to user_custs1_def.o(.constdata) for SVC2_WRITE_VAL_2_UUID_128
    user_custs1_def.o(.constdata) refers to user_custs1_def.o(.constdata) for custs1_svc3
    user_custs1_def.o(.constdata) refers to user_custs1_def.o(.constdata) for SVC3_READ_VAL_1_UUID_128
    user_custs1_def.o(.constdata) refers to user_custs1_def.o(.constdata) for SVC3_READ_VAL_2_UUID_128
    user_custs1_def.o(.constdata) refers to user_custs1_def.o(.constdata) for SVC3_READ_VAL_3_UUID_128
    user_custs1_def.o(.constdata) refers to user_custs1_def.o(.constdata) for SVC3_READ_VAL_4_UUID_128
    user_periph_setup.o(.text) refers to gpio.o(.text) for GPIO_ConfigurePin
    user_periph_setup.o(.text) refers to patch.o(.text) for patch_func
    user_periph_setup.o(.text) refers to uart.o(.text) for uart_initialize
    user_periph_setup.o(.text) refers to gpio.o(retention_mem_area0) for GPIO
    user_periph_setup.o(.text) refers to user_periph_setup.o(.constdata) for .constdata
    user_custs1_impl.o(.text) refers to app_easy_timer.o(.text) for app_easy_timer
    user_custs1_impl.o(.text) refers to gpio.o(.text) for GPIO_SetInactive
    user_custs1_impl.o(.text) refers to user_custs1_impl.o(retention_mem_area0) for retention_mem_area0
    user_custs1_impl.o(.text) refers to app.o(retention_mem_area0) for app_env
    user_peripheral.o(.text) refers to app_default_handlers.o(.text) for default_app_on_init
    user_peripheral.o(.text) refers to app_default_handlers.o(.text) for default_app_on_set_dev_config_complete
    user_peripheral.o(.text) refers to app.o(.text) for app_easy_gap_update_adv_data
    user_peripheral.o(.text) refers to app_easy_timer.o(.text) for app_easy_timer
    user_peripheral.o(.text) refers to app_default_handlers.o(.text) for default_app_on_init
    user_peripheral.o(.text) refers to user_custs1_impl.o(.text) for user_svc1_rest_att_info_req_handler
    user_peripheral.o(.text) refers to user_peripheral.o(retention_mem_area0) for retention_mem_area0
    user_peripheral.o(.text) refers to app.o(retention_mem_area0) for app_env
    patch.o(.text) refers to patch.o(.constdata) for .constdata
    patch.o(.constdata) refers to patch.o(.text) for PATCHED_llcp_length_req_handler
    patch.o(.constdata) refers to smpc_util.o(.text) for PATCHED_smpc_dhkey_calc_start
    rf_calibration.o(.text) refers to pll_vcocal_lut.o(.text) for set_rf_cal_cap
    rf_calibration.o(.text) refers to pll_vcocal_lut.o(.constdata) for LUT_CFG
    rf_calibration.o(.text) refers to pll_vcocal_lut.o(.text) for set_rf_cal_cap
    rf_calibration.o(.text) refers to pll_vcocal_lut.o(.constdata) for LUT_CFG
    rf_calibration.o(.text) refers to rf_calibration.o(.text) for DCoffsetCalibration_580
    rf_calibration.o(.text) refers to rf_calibration.o(.text) for modulationGainCalibration_580
    pll_vcocal_lut.o(.text) refers to pll_vcocal_lut.o(.text) for MedianOfFive
    pll_vcocal_lut.o(.text) refers to pll_vcocal_lut.o(.constdata) for .constdata
    pll_vcocal_lut.o(.text) refers to pll_vcocal_lut.o(.text) for GPADC_init
    pll_vcocal_lut.o(.text) refers to pll_vcocal_lut.o(.constdata) for .constdata
    pll_vcocal_lut.o(.text) refers to pll_vcocal_lut.o(.text) for check_pll_lock
    pll_vcocal_lut.o(.text) refers to pll_vcocal_lut.o(retention_mem_area0) for retention_mem_area0
    pll_vcocal_lut.o(.text) refers to pll_vcocal_lut.o(.text) for check_pll_lock
    pll_vcocal_lut.o(.text) refers to pll_vcocal_lut.o(retention_mem_area0) for retention_mem_area0
    pll_vcocal_lut.o(.text) refers to pll_vcocal_lut.o(retention_mem_area0) for retention_mem_area0
    pll_vcocal_lut.o(.text) refers to pll_vcocal_lut.o(.text) for write_one_SW_LUT_entry
    pll_vcocal_lut.o(.text) refers to pll_vcocal_lut.o(.text) for write_HW_LUT
    pll_vcocal_lut.o(.text) refers to pll_vcocal_lut.o(.constdata) for .constdata
    pll_vcocal_lut.o(.text) refers to pll_vcocal_lut.o(retention_mem_area0) for retention_mem_area0
    pll_vcocal_lut.o(.text) refers to pll_vcocal_lut.o(.text) for clear_HW_LUT
    pll_vcocal_lut.o(.text) refers to pll_vcocal_lut.o(.constdata) for .constdata
    pll_vcocal_lut.o(.text) refers to arch_system.o(retention_mem_area0) for last_temp_count
    pll_vcocal_lut.o(.text) refers to pll_vcocal_lut.o(.text) for update_calcap_min_channel
    pll_vcocal_lut.o(.text) refers to pll_vcocal_lut.o(.text) for update_calcap_max_channel
    pll_vcocal_lut.o(.text) refers to pll_vcocal_lut.o(.constdata) for .constdata
    pll_vcocal_lut.o(.text) refers to pll_vcocal_lut.o(retention_mem_area0) for retention_mem_area0
    pll_vcocal_lut.o(.text) refers to pll_vcocal_lut.o(.text) for meas_precharge_freq
    pll_vcocal_lut.o(.text) refers to pll_vcocal_lut.o(.constdata) for .constdata
    pll_vcocal_lut.o(.text) refers to pll_vcocal_lut.o(retention_mem_area0) for retention_mem_area0
    pll_vcocal_lut.o(.text) refers to pll_vcocal_lut.o(.text) for save_configure_restore
    pll_vcocal_lut.o(.text) refers to pll_vcocal_lut.o(.text) for find_initial_calcap_ranges
    pll_vcocal_lut.o(.text) refers to pll_vcocal_lut.o(.text) for update_calcap_ranges
    pll_vcocal_lut.o(.text) refers to pll_vcocal_lut.o(.text) for update_LUT
    pll_vcocal_lut.o(.text) refers to pll_vcocal_lut.o(retention_mem_area0) for retention_mem_area0
    entry.o(.ARM.Collect$$$$00000000) refers (Special) to entry10a.o(.ARM.Collect$$$$0000000F) for __rt_final_cpp
    entry.o(.ARM.Collect$$$$00000000) refers (Special) to entry11a.o(.ARM.Collect$$$$00000011) for __rt_final_exit
    entry.o(.ARM.Collect$$$$00000000) refers (Special) to entry12b.o(.ARM.Collect$$$$0000000E) for __rt_lib_shutdown_fini
    entry.o(.ARM.Collect$$$$00000000) refers (Special) to entry7b.o(.ARM.Collect$$$$00000008) for _main_clock
    entry.o(.ARM.Collect$$$$00000000) refers (Special) to entry8b.o(.ARM.Collect$$$$0000000A) for _main_cpp_init
    entry.o(.ARM.Collect$$$$00000000) refers (Special) to entry9a.o(.ARM.Collect$$$$0000000B) for _main_init
    entry.o(.ARM.Collect$$$$00000000) refers (Special) to entry5.o(.ARM.Collect$$$$00000004) for _main_scatterload
    entry.o(.ARM.Collect$$$$00000000) refers (Special) to entry2.o(.ARM.Collect$$$$00000001) for _main_stk
    entry2.o(.ARM.Collect$$$$00000001) refers to entry2.o(.ARM.Collect$$$$00002712) for __lit__00000000
    entry2.o(.ARM.Collect$$$$00002712) refers to startup_da14585_586.o(STACK) for __initial_sp
    entry2.o(__vectab_stack_and_reset_area) refers to startup_da14585_586.o(STACK) for __initial_sp
    entry2.o(__vectab_stack_and_reset_area) refers to entry.o(.ARM.Collect$$$$00000000) for __main
    entry5.o(.ARM.Collect$$$$00000004) refers to init.o(.text) for __scatterload
    entry9a.o(.ARM.Collect$$$$0000000B) refers to arch_main.o(.text) for main
    entry9b.o(.ARM.Collect$$$$0000000C) refers to arch_main.o(.text) for main
    init.o(.text) refers to entry5.o(.ARM.Collect$$$$00000004) for __main_after_scatterload


==============================================================================

Removing Unused input sections from the image.

    Removing system_da14585_586.o(.text), (16 bytes).
    Removing system_da14585_586.o(.data), (4 bytes).
    Removing startup_da14585_586.o(HEAP), (256 bytes).
    Removing arch_console.o(.text), (134 bytes).
    Removing arch_console.o(.text), (52 bytes).
    Removing arch_console.o(.text), (308 bytes).
    Removing arch_console.o(.text), (76 bytes).
    Removing arch_console.o(.text), (20 bytes).
    Removing arch_console.o(.text), (16 bytes).
    Removing arch_console.o(.text), (32 bytes).
    Removing arch_main.o(.constdata), (28 bytes).
    Removing jump_table.o(.text), (2 bytes).
    Removing arch_sleep.o(.text), (160 bytes).
    Removing arch_sleep.o(.text), (12 bytes).
    Removing arch_sleep.o(.text), (12 bytes).
    Removing arch_sleep.o(.text), (12 bytes).
    Removing arch_system.o(.text), (2 bytes).
    Removing arch_system.o(.text), (2 bytes).
    Removing arch_system.o(.text), (28 bytes).
    Removing arch_system.o(.text), (36 bytes).
    Removing arch_system.o(.text), (2 bytes).
    Removing arch_system.o(.text), (28 bytes).
    Removing arch_system.o(.constdata), (28 bytes).
    Removing arch_system.o(retention_mem_area0), (8 bytes).
    Removing arch_system.o(retention_mem_area0), (8 bytes).
    Removing arch_system.o(retention_mem_area0), (8 bytes).
    Removing arch_system.o(retention_mem_area0), (8 bytes).
    Removing hash.o(.text), (76 bytes).
    Removing syscntl.o(.text), (24 bytes).
    Removing gpio.o(.text), (28 bytes).
    Removing gpio.o(.text), (88 bytes).
    Removing gpio.o(.text), (72 bytes).
    Removing gpio.o(.text), (32 bytes).
    Removing gpio.o(.text), (288 bytes).
    Removing gpio.o(.text), (144 bytes).
    Removing gpio.o(.text), (36 bytes).
    Removing gpio.o(.text), (24 bytes).
    Removing gpio.o(.text), (180 bytes).
    Removing gpio.o(.text), (12 bytes).
    Removing gpio.o(.text), (16 bytes).
    Removing gpio.o(.text), (16 bytes).
    Removing wkupct_quadec.o(.text), (68 bytes).
    Removing wkupct_quadec.o(.text), (56 bytes).
    Removing wkupct_quadec.o(.text), (156 bytes).
    Removing wkupct_quadec.o(.text), (28 bytes).
    Removing wkupct_quadec.o(.text), (12 bytes).
    Removing wkupct_quadec.o(.text), (12 bytes).
    Removing wkupct_quadec.o(.text), (40 bytes).
    Removing wkupct_quadec.o(.text), (32 bytes).
    Removing wkupct_quadec.o(.text), (32 bytes).
    Removing wkupct_quadec.o(.text), (56 bytes).
    Removing wkupct_quadec.o(.text), (24 bytes).
    Removing battery.o(.text), (220 bytes).
    Removing battery.o(.text), (56 bytes).
    Removing battery.o(.text), (2 bytes).
    Removing battery.o(.constdata), (12 bytes).
    Removing battery.o(retention_mem_area0), (8 bytes).
    Removing adc_58x.o(.text), (28 bytes).
    Removing adc_58x.o(.text), (56 bytes).
    Removing adc_58x.o(.text), (44 bytes).
    Removing adc_58x.o(.text), (28 bytes).
    Removing adc_58x.o(.text), (12 bytes).
    Removing adc_58x.o(.text), (172 bytes).
    Removing spi_58x.o(.text), (36 bytes).
    Removing spi_58x.o(.text), (20 bytes).
    Removing spi_58x.o(.text), (60 bytes).
    Removing spi_58x.o(.text), (56 bytes).
    Removing spi_58x.o(.text), (24 bytes).
    Removing spi_58x.o(.text), (36 bytes).
    Removing spi_58x.o(.text), (40 bytes).
    Removing spi_58x.o(.text), (40 bytes).
    Removing spi_58x.o(.text), (92 bytes).
    Removing spi_58x.o(.text), (20 bytes).
    Removing spi_58x.o(.text), (96 bytes).
    Removing spi_58x.o(.text), (104 bytes).
    Removing spi_58x.o(.text), (152 bytes).
    Removing spi_58x.o(.text), (64 bytes).
    Removing spi_58x.o(.text), (24 bytes).
    Removing spi_58x.o(.text), (28 bytes).
    Removing spi_58x.o(retention_mem_area0), (2 bytes).
    Removing spi_flash.o(.text), (20 bytes).
    Removing spi_flash.o(.text), (16 bytes).
    Removing spi_flash.o(.text), (32 bytes).
    Removing spi_flash.o(.text), (12 bytes).
    Removing spi_flash.o(.text), (4 bytes).
    Removing spi_flash.o(.text), (26 bytes).
    Removing spi_flash.o(.text), (34 bytes).
    Removing spi_flash.o(.text), (76 bytes).
    Removing spi_flash.o(.text), (100 bytes).
    Removing spi_flash.o(.text), (24 bytes).
    Removing spi_flash.o(.text), (24 bytes).
    Removing spi_flash.o(.text), (24 bytes).
    Removing spi_flash.o(.text), (48 bytes).
    Removing spi_flash.o(.text), (10 bytes).
    Removing spi_flash.o(.text), (10 bytes).
    Removing spi_flash.o(.text), (46 bytes).
    Removing spi_flash.o(.text), (34 bytes).
    Removing spi_flash.o(.text), (26 bytes).
    Removing spi_flash.o(.text), (40 bytes).
    Removing spi_flash.o(.text), (22 bytes).
    Removing spi_flash.o(.text), (8 bytes).
    Removing spi_flash.o(.text), (36 bytes).
    Removing spi_flash.o(.text), (52 bytes).
    Removing spi_flash.o(.text), (70 bytes).
    Removing spi_flash.o(.text), (44 bytes).
    Removing spi_flash.o(.text), (44 bytes).
    Removing spi_flash.o(.text), (42 bytes).
    Removing spi_flash.o(.text), (36 bytes).
    Removing spi_flash.o(.text), (16 bytes).
    Removing spi_flash.o(.text), (22 bytes).
    Removing spi_flash.o(.text), (92 bytes).
    Removing spi_flash.o(.text), (82 bytes).
    Removing spi_flash.o(.text), (108 bytes).
    Removing spi_flash.o(.text), (108 bytes).
    Removing spi_flash.o(.text), (88 bytes).
    Removing spi_flash.o(.text), (100 bytes).
    Removing spi_flash.o(.text), (22 bytes).
    Removing spi_flash.o(.text), (100 bytes).
    Removing spi_flash.o(.text), (132 bytes).
    Removing spi_flash.o(.text), (68 bytes).
    Removing spi_flash.o(.text), (36 bytes).
    Removing spi_flash.o(.text), (40 bytes).
    Removing spi_flash.o(.text), (4 bytes).
    Removing spi_flash.o(.text), (2 bytes).
    Removing spi_flash.o(.text), (4 bytes).
    Removing spi_flash.o(.bss), (12 bytes).
    Removing spi_flash.o(.constdata), (132 bytes).
    Removing i2c.o(.text), (48 bytes).
    Removing i2c.o(.text), (72 bytes).
    Removing i2c.o(.text), (216 bytes).
    Removing i2c.o(.text), (36 bytes).
    Removing i2c.o(.text), (100 bytes).
    Removing i2c.o(.text), (104 bytes).
    Removing i2c.o(.text), (20 bytes).
    Removing i2c.o(.text), (18 bytes).
    Removing i2c.o(.text), (36 bytes).
    Removing i2c.o(.text), (132 bytes).
    Removing i2c.o(.text), (60 bytes).
    Removing i2c.o(.text), (36 bytes).
    Removing i2c.o(.text), (112 bytes).
    Removing i2c.o(.text), (48 bytes).
    Removing i2c.o(.text), (40 bytes).
    Removing i2c.o(.text), (92 bytes).
    Removing i2c.o(.text), (92 bytes).
    Removing i2c.o(.text), (40 bytes).
    Removing i2c.o(.text), (144 bytes).
    Removing i2c.o(.text), (48 bytes).
    Removing i2c_eeprom.o(.text), (28 bytes).
    Removing i2c_eeprom.o(.text), (24 bytes).
    Removing i2c_eeprom.o(.text), (16 bytes).
    Removing i2c_eeprom.o(.text), (8 bytes).
    Removing i2c_eeprom.o(.text), (20 bytes).
    Removing i2c_eeprom.o(.text), (72 bytes).
    Removing i2c_eeprom.o(.text), (96 bytes).
    Removing i2c_eeprom.o(.text), (96 bytes).
    Removing i2c_eeprom.o(.text), (136 bytes).
    Removing i2c_eeprom.o(.text), (84 bytes).
    Removing i2c_eeprom.o(.text), (80 bytes).
    Removing i2c_eeprom.o(.text), (152 bytes).
    Removing i2c_eeprom.o(.text), (84 bytes).
    Removing i2c_eeprom.o(retention_mem_area0), (24 bytes).
    Removing hw_otpc_58x.o(.text), (60 bytes).
    Removing hw_otpc_58x.o(.text), (28 bytes).
    Removing hw_otpc_58x.o(.text), (92 bytes).
    Removing hw_otpc_58x.o(.text), (116 bytes).
    Removing hw_otpc_58x.o(.text), (196 bytes).
    Removing hw_otpc_58x.o(.text), (36 bytes).
    Removing hw_otpc_58x.o(.text), (208 bytes).
    Removing hw_otpc_58x.o(.text), (108 bytes).
    Removing hw_otpc_58x.o(.text), (96 bytes).
    Removing hw_otpc_58x.o(.text), (136 bytes).
    Removing hw_otpc_58x.o(.text), (148 bytes).
    Removing hw_otpc_58x.o(.text), (64 bytes).
    Removing hw_otpc_58x.o(.text), (44 bytes).
    Removing hw_otpc_58x.o(.text), (44 bytes).
    Removing hw_otpc_58x.o(.text), (10 bytes).
    Removing hw_otpc_58x.o(.text), (10 bytes).
    Removing hw_otpc_58x.o(.text), (10 bytes).
    Removing hw_otpc_58x.o(.text), (16 bytes).
    Removing hw_otpc_58x.o(.text), (116 bytes).
    Removing hw_otpc_58x.o(.constdata), (20 bytes).
    Removing uart.o(.text), (56 bytes).
    Removing uart.o(.text), (32 bytes).
    Removing uart.o(.text), (32 bytes).
    Removing uart.o(.text), (14 bytes).
    Removing uart.o(.text), (28 bytes).
    Removing uart.o(.text), (120 bytes).
    Removing uart.o(.text), (22 bytes).
    Removing uart.o(.text), (94 bytes).
    Removing rf_585.o(.text), (12 bytes).
    Removing rf_585.o(.text), (24 bytes).
    Removing rf_585.o(.text), (28 bytes).
    Removing prf_utils.o(.text), (32 bytes).
    Removing prf_utils.o(.text), (34 bytes).
    Removing prf.o(.text), (72 bytes).
    Removing app_default_handlers.o(.text), (8 bytes).
    Removing app_default_handlers.o(.text), (8 bytes).
    Removing app_default_handlers.o(.text), (48 bytes).
    Removing app_default_handlers.o(.text), (172 bytes).
    Removing app_default_handlers.o(.constdata), (12 bytes).
    Removing app_default_handlers.o(.constdata), (4 bytes).
    Removing app.o(.text), (176 bytes).
    Removing app.o(.text), (96 bytes).
    Removing app.o(.text), (80 bytes).
    Removing app.o(.text), (28 bytes).
    Removing app.o(.text), (28 bytes).
    Removing app.o(.text), (36 bytes).
    Removing app.o(.text), (52 bytes).
    Removing app.o(.text), (52 bytes).
    Removing app.o(.text), (8 bytes).
    Removing app.o(.text), (32 bytes).
    Removing app.o(.text), (8 bytes).
    Removing app.o(.text), (40 bytes).
    Removing app.o(.text), (48 bytes).
    Removing app.o(.text), (28 bytes).
    Removing app.o(.text), (8 bytes).
    Removing app.o(.text), (28 bytes).
    Removing app.o(.text), (8 bytes).
    Removing app.o(.text), (38 bytes).
    Removing app.o(.text), (24 bytes).
    Removing app.o(.text), (8 bytes).
    Removing app.o(.text), (32 bytes).
    Removing app.o(.text), (60 bytes).
    Removing app.o(.text), (44 bytes).
    Removing app.o(.text), (44 bytes).
    Removing app.o(.constdata), (42 bytes).
    Removing app.o(.constdata), (12 bytes).
    Removing app.o(.constdata), (74 bytes).
    Removing app_task.o(.constdata), (84 bytes).
    Removing app_msg_utils.o(.text), (24 bytes).
    Removing app_easy_msg_utils.o(.text), (36 bytes).
    Removing app_easy_msg_utils.o(.text), (52 bytes).
    Removing app_easy_msg_utils.o(.text), (40 bytes).
    Removing app_easy_msg_utils.o(.text), (32 bytes).
    Removing app_easy_msg_utils.o(.text), (20 bytes).
    Removing app_easy_msg_utils.o(.text), (24 bytes).
    Removing app_easy_msg_utils.o(.text), (60 bytes).
    Removing app_easy_msg_utils.o(.text), (24 bytes).
    Removing app_easy_msg_utils.o(retention_mem_area0), (24 bytes).
    Removing app_easy_timer.o(.text), (116 bytes).
    Removing app_easy_timer.o(.text), (44 bytes).
    Removing app_customs.o(.text), (2 bytes).
    Removing app_customs_common.o(.text), (4 bytes).
    Removing app_utils.o(.text), (58 bytes).
    Removing app_utils.o(.text), (146 bytes).
    Removing app_easy_whitelist.o(.text), (68 bytes).
    Removing user_custs1_impl.o(.text), (2 bytes).
    Removing user_custs1_impl.o(.text), (2 bytes).
    Removing user_custs1_impl.o(.text), (2 bytes).
    Removing user_custs1_impl.o(.text), (2 bytes).
    Removing user_custs1_impl.o(.text), (2 bytes).
    Removing user_peripheral.o(.text), (8 bytes).
    Removing user_peripheral.o(.text), (8 bytes).
    Removing user_peripheral.o(.constdata), (12 bytes).
    Removing pll_vcocal_lut.o(.text), (52 bytes).
    Removing pll_vcocal_lut.o(.text), (64 bytes).
    Removing pll_vcocal_lut.o(.text), (324 bytes).
    Removing pll_vcocal_lut.o(.text), (248 bytes).
    Removing pll_vcocal_lut.o(.text), (172 bytes).
    Removing pll_vcocal_lut.o(.text), (172 bytes).
    Removing pll_vcocal_lut.o(.text), (8 bytes).
    Removing pll_vcocal_lut.o(.text), (32 bytes).
    Removing pll_vcocal_lut.o(.text), (48 bytes).
    Removing pll_vcocal_lut.o(.text), (24 bytes).
    Removing pll_vcocal_lut.o(.text), (384 bytes).
    Removing pll_vcocal_lut.o(.text), (324 bytes).
    Removing pll_vcocal_lut.o(.text), (256 bytes).
    Removing pll_vcocal_lut.o(.text), (644 bytes).
    Removing pll_vcocal_lut.o(.text), (48 bytes).
    Removing arch_system.o(i.__ARM_common_ll_muluu), (48 bytes).
    Removing app_diss_task.o(i.__ARM_common_switch8), (26 bytes).

271 unused section(s) (total 16238 bytes) removed from the image.

==============================================================================

Image Symbol Table

    Local Symbols

    Symbol Name                              Value     Ov Type        Size  Object(Section)

    ../clib/microlib/init/entry.s            0x00000000   Number         0  entry11a.o ABSOLUTE
    ../clib/microlib/init/entry.s            0x00000000   Number         0  entry10a.o ABSOLUTE
    ../clib/microlib/init/entry.s            0x00000000   Number         0  entry5.o ABSOLUTE
    ../clib/microlib/init/entry.s            0x00000000   Number         0  entry7a.o ABSOLUTE
    ../clib/microlib/init/entry.s            0x00000000   Number         0  entry.o ABSOLUTE
    ../clib/microlib/init/entry.s            0x00000000   Number         0  entry7b.o ABSOLUTE
    ../clib/microlib/init/entry.s            0x00000000   Number         0  entry12b.o ABSOLUTE
    ../clib/microlib/init/entry.s            0x00000000   Number         0  entry12a.o ABSOLUTE
    ../clib/microlib/init/entry.s            0x00000000   Number         0  entry11b.o ABSOLUTE
    ../clib/microlib/init/entry.s            0x00000000   Number         0  entry2.o ABSOLUTE
    ../clib/microlib/init/entry.s            0x00000000   Number         0  entry8a.o ABSOLUTE
    ../clib/microlib/init/entry.s            0x00000000   Number         0  entry8b.o ABSOLUTE
    ../clib/microlib/init/entry.s            0x00000000   Number         0  entry10b.o ABSOLUTE
    ../clib/microlib/init/entry.s            0x00000000   Number         0  entry9a.o ABSOLUTE
    ../clib/microlib/init/entry.s            0x00000000   Number         0  entry9b.o ABSOLUTE
    ..\..\..\..\..\sdk\app_modules\src\app_bass\app_bass.c 0x00000000   Number         0  app_bass.o ABSOLUTE
    ..\..\..\..\..\sdk\app_modules\src\app_bass\app_bass_task.c 0x00000000   Number         0  app_bass_task.o ABSOLUTE
    ..\..\..\..\..\sdk\app_modules\src\app_bond_db\app_bond_db.c 0x00000000   Number         0  app_bond_db.o ABSOLUTE
    ..\..\..\..\..\sdk\app_modules\src\app_common\app.c 0x00000000   Number         0  app.o ABSOLUTE
    ..\..\..\..\..\sdk\app_modules\src\app_common\app_msg_utils.c 0x00000000   Number         0  app_msg_utils.o ABSOLUTE
    ..\..\..\..\..\sdk\app_modules\src\app_common\app_task.c 0x00000000   Number         0  app_task.o ABSOLUTE
    ..\..\..\..\..\sdk\app_modules\src\app_common\app_utils.c 0x00000000   Number         0  app_utils.o ABSOLUTE
    ..\..\..\..\..\sdk\app_modules\src\app_custs\app_customs.c 0x00000000   Number         0  app_customs.o ABSOLUTE
    ..\..\..\..\..\sdk\app_modules\src\app_custs\app_customs_common.c 0x00000000   Number         0  app_customs_common.o ABSOLUTE
    ..\..\..\..\..\sdk\app_modules\src\app_custs\app_customs_task.c 0x00000000   Number         0  app_customs_task.o ABSOLUTE
    ..\..\..\..\..\sdk\app_modules\src\app_default_hnd\app_default_handlers.c 0x00000000   Number         0  app_default_handlers.o ABSOLUTE
    ..\..\..\..\..\sdk\app_modules\src\app_diss\app_diss.c 0x00000000   Number         0  app_diss.o ABSOLUTE
    ..\..\..\..\..\sdk\app_modules\src\app_diss\app_diss_task.c 0x00000000   Number         0  app_diss_task.o ABSOLUTE
    ..\..\..\..\..\sdk\app_modules\src\app_easy\app_easy_msg_utils.c 0x00000000   Number         0  app_easy_msg_utils.o ABSOLUTE
    ..\..\..\..\..\sdk\app_modules\src\app_easy\app_easy_security.c 0x00000000   Number         0  app_easy_security.o ABSOLUTE
    ..\..\..\..\..\sdk\app_modules\src\app_easy\app_easy_timer.c 0x00000000   Number         0  app_easy_timer.o ABSOLUTE
    ..\..\..\..\..\sdk\app_modules\src\app_easy\app_easy_whitelist.c 0x00000000   Number         0  app_easy_whitelist.o ABSOLUTE
    ..\..\..\..\..\sdk\app_modules\src\app_entry\app_entry_point.c 0x00000000   Number         0  app_entry_point.o ABSOLUTE
    ..\..\..\..\..\sdk\app_modules\src\app_findme\app_findme.c 0x00000000   Number         0  app_findme.o ABSOLUTE
    ..\..\..\..\..\sdk\app_modules\src\app_findme\app_findme_task.c 0x00000000   Number         0  app_findme_task.o ABSOLUTE
    ..\..\..\..\..\sdk\app_modules\src\app_proxr\app_proxr.c 0x00000000   Number         0  app_proxr.o ABSOLUTE
    ..\..\..\..\..\sdk\app_modules\src\app_proxr\app_proxr_task.c 0x00000000   Number         0  app_proxr_task.o ABSOLUTE
    ..\..\..\..\..\sdk\app_modules\src\app_sec\app_security.c 0x00000000   Number         0  app_security.o ABSOLUTE
    ..\..\..\..\..\sdk\app_modules\src\app_sec\app_security_task.c 0x00000000   Number         0  app_security_task.o ABSOLUTE
    ..\..\..\..\..\sdk\app_modules\src\app_suotar\app_suotar.c 0x00000000   Number         0  app_suotar.o ABSOLUTE
    ..\..\..\..\..\sdk\app_modules\src\app_suotar\app_suotar_task.c 0x00000000   Number         0  app_suotar_task.o ABSOLUTE
    ..\..\..\..\..\sdk\ble_stack\host\att\attm\attm_db_128.c 0x00000000   Number         0  attm_db_128.o ABSOLUTE
    ..\..\..\..\..\sdk\ble_stack\profiles\custom\custom_common.c 0x00000000   Number         0  custom_common.o ABSOLUTE
    ..\..\..\..\..\sdk\ble_stack\profiles\custom\custs\src\custs1.c 0x00000000   Number         0  custs1.o ABSOLUTE
    ..\..\..\..\..\sdk\ble_stack\profiles\custom\custs\src\custs1_task.c 0x00000000   Number         0  custs1_task.o ABSOLUTE
    ..\..\..\..\..\sdk\ble_stack\profiles\dis\diss\src\diss.c 0x00000000   Number         0  diss.o ABSOLUTE
    ..\..\..\..\..\sdk\ble_stack\profiles\dis\diss\src\diss_task.c 0x00000000   Number         0  diss_task.o ABSOLUTE
    ..\..\..\..\..\sdk\ble_stack\profiles\prf.c 0x00000000   Number         0  prf.o ABSOLUTE
    ..\..\..\..\..\sdk\ble_stack\profiles\prf_utils.c 0x00000000   Number         0  prf_utils.o ABSOLUTE
    ..\..\..\..\..\sdk\ble_stack\rwble\rwble.c 0x00000000   Number         0  rwble.o ABSOLUTE
    ..\..\..\..\..\sdk\platform\arch\boot\ARM\startup_DA14585_586.s 0x00000000   Number         0  startup_da14585_586.o ABSOLUTE
    ..\..\..\..\..\sdk\platform\arch\boot\system_DA14585_586.c 0x00000000   Number         0  system_da14585_586.o ABSOLUTE
    ..\..\..\..\..\sdk\platform\arch\main\arch_main.c 0x00000000   Number         0  arch_main.o ABSOLUTE
    ..\..\..\..\..\sdk\platform\arch\main\arch_rom.c 0x00000000   Number         0  arch_rom.o ABSOLUTE
    ..\..\..\..\..\sdk\platform\arch\main\arch_sleep.c 0x00000000   Number         0  arch_sleep.o ABSOLUTE
    ..\..\..\..\..\sdk\platform\arch\main\arch_system.c 0x00000000   Number         0  arch_system.o ABSOLUTE
    ..\..\..\..\..\sdk\platform\arch\main\hardfault_handler.c 0x00000000   Number         0  hardfault_handler.o ABSOLUTE
    ..\..\..\..\..\sdk\platform\arch\main\jump_table.c 0x00000000   Number         0  jump_table.o ABSOLUTE
    ..\..\..\..\..\sdk\platform\arch\main\nmi_handler.c 0x00000000   Number         0  nmi_handler.o ABSOLUTE
    ..\..\..\..\..\sdk\platform\core_modules\arch_console\arch_console.c 0x00000000   Number         0  arch_console.o ABSOLUTE
    ..\..\..\..\..\sdk\platform\core_modules\nvds\src\nvds.c 0x00000000   Number         0  nvds.o ABSOLUTE
    ..\..\..\..\..\sdk\platform\core_modules\rf\src\ble_arp.c 0x00000000   Number         0  ble_arp.o ABSOLUTE
    ..\..\..\..\..\sdk\platform\core_modules\rf\src\rf_531.c 0x00000000   Number         0  rf_531.o ABSOLUTE
    ..\..\..\..\..\sdk\platform\core_modules\rf\src\rf_585.c 0x00000000   Number         0  rf_585.o ABSOLUTE
    ..\..\..\..\..\sdk\platform\core_modules\rwip\src\rwip.c 0x00000000   Number         0  rwip.o ABSOLUTE
    ..\..\..\..\..\sdk\platform\driver\adc\adc_58x.c 0x00000000   Number         0  adc_58x.o ABSOLUTE
    ..\..\..\..\..\sdk\platform\driver\battery\battery.c 0x00000000   Number         0  battery.o ABSOLUTE
    ..\..\..\..\..\sdk\platform\driver\dma\dma.c 0x00000000   Number         0  dma.o ABSOLUTE
    ..\..\..\..\..\sdk\platform\driver\gpio\gpio.c 0x00000000   Number         0  gpio.o ABSOLUTE
    ..\..\..\..\..\sdk\platform\driver\hw_otpc\hw_otpc_58x.c 0x00000000   Number         0  hw_otpc_58x.o ABSOLUTE
    ..\..\..\..\..\sdk\platform\driver\i2c\i2c.c 0x00000000   Number         0  i2c.o ABSOLUTE
    ..\..\..\..\..\sdk\platform\driver\i2c_eeprom\i2c_eeprom.c 0x00000000   Number         0  i2c_eeprom.o ABSOLUTE
    ..\..\..\..\..\sdk\platform\driver\spi\spi_58x.c 0x00000000   Number         0  spi_58x.o ABSOLUTE
    ..\..\..\..\..\sdk\platform\driver\spi_flash\spi_flash.c 0x00000000   Number         0  spi_flash.o ABSOLUTE
    ..\..\..\..\..\sdk\platform\driver\syscntl\syscntl.c 0x00000000   Number         0  syscntl.o ABSOLUTE
    ..\..\..\..\..\sdk\platform\driver\trng\trng.c 0x00000000   Number         0  trng.o ABSOLUTE
    ..\..\..\..\..\sdk\platform\driver\uart\uart.c 0x00000000   Number         0  uart.o ABSOLUTE
    ..\..\..\..\..\sdk\platform\driver\wkupct_quadec\wkupct_quadec.c 0x00000000   Number         0  wkupct_quadec.o ABSOLUTE
    ..\..\..\..\..\sdk\platform\utilities\otp_hdr\otp_hdr.c 0x00000000   Number         0  otp_hdr.o ABSOLUTE
    ..\..\..\..\..\third_party\hash\hash.c   0x00000000   Number         0  hash.o ABSOLUTE
    ..\..\..\..\..\third_party\rand\chacha20.c 0x00000000   Number         0  chacha20.o ABSOLUTE
    ..\..\src\DA14585_586\patch.c            0x00000000   Number         0  patch.o ABSOLUTE
    ..\..\src\DA14585_586\pll_vcocal_lut.c   0x00000000   Number         0  pll_vcocal_lut.o ABSOLUTE
    ..\..\src\DA14585_586\rf_calibration.c   0x00000000   Number         0  rf_calibration.o ABSOLUTE
    ..\..\src\DA14585_586\smpc_util.c        0x00000000   Number         0  smpc_util.o ABSOLUTE
    ..\src\custom_profile\user_custs1_def.c  0x00000000   Number         0  user_custs1_def.o ABSOLUTE
    ..\src\custom_profile\user_custs_config.c 0x00000000   Number         0  user_custs_config.o ABSOLUTE
    ..\src\platform\user_periph_setup.c      0x00000000   Number         0  user_periph_setup.o ABSOLUTE
    ..\src\user_custs1_impl.c                0x00000000   Number         0  user_custs1_impl.o ABSOLUTE
    ..\src\user_peripheral.c                 0x00000000   Number         0  user_peripheral.o ABSOLUTE
    handlers.s                               0x00000000   Number         0  handlers.o ABSOLUTE
    init.s                                   0x00000000   Number         0  init.o ABSOLUTE
    RESET                                    0x07fc0000   Section      160  startup_da14585_586.o(RESET)
    trng_buffer_area_zi                      0x07fc0110   Section     1024  trng.o(trng_buffer_area_zi)
    rfadc_data_buffer                        0x07fc0110   Data        1024  trng.o(trng_buffer_area_zi)
    .ARM.Collect$$$$00000000                 0x07fc0510   Section        0  entry.o(.ARM.Collect$$$$00000000)
    .ARM.Collect$$$$00000001                 0x07fc0510   Section        4  entry2.o(.ARM.Collect$$$$00000001)
    .ARM.Collect$$$$00000004                 0x07fc0514   Section        4  entry5.o(.ARM.Collect$$$$00000004)
    .ARM.Collect$$$$00000008                 0x07fc0518   Section        0  entry7b.o(.ARM.Collect$$$$00000008)
    .ARM.Collect$$$$0000000A                 0x07fc0518   Section        0  entry8b.o(.ARM.Collect$$$$0000000A)
    .ARM.Collect$$$$0000000B                 0x07fc0518   Section        8  entry9a.o(.ARM.Collect$$$$0000000B)
    .ARM.Collect$$$$0000000E                 0x07fc0520   Section        4  entry12b.o(.ARM.Collect$$$$0000000E)
    .ARM.Collect$$$$0000000F                 0x07fc0524   Section        0  entry10a.o(.ARM.Collect$$$$0000000F)
    .ARM.Collect$$$$00000011                 0x07fc0524   Section        0  entry11a.o(.ARM.Collect$$$$00000011)
    .ARM.Collect$$$$00002712                 0x07fc0524   Section        4  entry2.o(.ARM.Collect$$$$00002712)
    __lit__00000000                          0x07fc0524   Data           4  entry2.o(.ARM.Collect$$$$00002712)
    .text                                    0x07fc0528   Section        0  system_da14585_586.o(.text)
    __NVIC_DisableIRQ                        0x07fc054f   Thumb Code    26  system_da14585_586.o(.text)
    .text                                    0x07fc0570   Section       80  startup_da14585_586.o(.text)
    NMI_Handler                              0x07fc0579   Thumb Code    24  startup_da14585_586.o(.text)
    HardFault_Handler                        0x07fc0591   Thumb Code    24  startup_da14585_586.o(.text)
    .text                                    0x07fc05c0   Section        0  hardfault_handler.o(.text)
    .text                                    0x07fc0628   Section        0  nmi_handler.o(.text)
    .text                                    0x07fc06c4   Section        0  arch_console.o(.text)
    uart_callback                            0x07fc06c5   Thumb Code    78  arch_console.o(.text)
    delete_msg                               0x07fc07d3   Thumb Code    14  arch_console.o(.text)
    arch_strlen                              0x07fc07e1   Thumb Code    16  arch_console.o(.text)
    .text                                    0x07fc0800   Section        0  nvds.o(.text)
    .text                                    0x07fc08c8   Section        0  arch_main.o(.text)
    arch_turn_peripherals_off                0x07fc08c9   Thumb Code   184  arch_main.o(.text)
    init_retention_mode                      0x07fc0a8d   Thumb Code   168  arch_main.o(.text)
    .text                                    0x07fc0b84   Section        0  jump_table.o(.text)
    .text                                    0x07fc0bd4   Section        0  arch_sleep.o(.text)
    .text                                    0x07fc0cf8   Section        0  arch_system.o(.text)
    .text                                    0x07fc10bc   Section        0  arch_rom.o(.text)
    .text                                    0x07fc11a4   Section        0  otp_hdr.o(.text)
    .text                                    0x07fc11b4   Section        0  syscntl.o(.text)
    .text                                    0x07fc11e0   Section        0  gpio.o(.text)
    gpioshift16                              0x07fc13f9   Thumb Code    32  gpio.o(.text)
    .text                                    0x07fc142c   Section        0  wkupct_quadec.o(.text)
    .text                                    0x07fc14a0   Section        0  adc_58x.o(.text)
    __NVIC_DisableIRQ                        0x07fc1565   Thumb Code    26  adc_58x.o(.text)
    adc_configure                            0x07fc157f   Thumb Code    86  adc_58x.o(.text)
    adc_usDelay                              0x07fc15d5   Thumb Code    30  adc_58x.o(.text)
    .text                                    0x07fc160c   Section        0  i2c.o(.text)
    __NVIC_ClearPendingIRQ                   0x07fc1627   Thumb Code    18  i2c.o(.text)
    .text                                    0x07fc1644   Section        0  hw_otpc_58x.o(.text)
    .text                                    0x07fc16bc   Section        0  uart.o(.text)
    __NVIC_SetPriority                       0x07fc16bd   Thumb Code    60  uart.o(.text)
    uart_rx_isr                              0x07fc16f9   Thumb Code    72  uart.o(.text)
    __NVIC_EnableIRQ                         0x07fc190d   Thumb Code    18  uart.o(.text)
    __NVIC_DisableIRQ                        0x07fc191f   Thumb Code    28  uart.o(.text)
    uart_intr_hndl                           0x07fc193b   Thumb Code   156  uart.o(.text)
    uart_tx_isr                              0x07fc19d7   Thumb Code   100  uart.o(.text)
    .text                                    0x07fc1a54   Section        0  trng.o(.text)
    trng_init                                0x07fc1b8b   Thumb Code    96  trng.o(.text)
    .text                                    0x07fc1c14   Section        0  rwble.o(.text)
    .text                                    0x07fc1eb4   Section        0  rwip.o(.text)
    get_max_sleep_duration                   0x07fc2047   Thumb Code     8  rwip.o(.text)
    .text                                    0x07fc2084   Section        0  rf_585.o(.text)
    rf_reg_rd                                0x07fc2085   Thumb Code     4  rf_585.o(.text)
    rf_reg_wr                                0x07fc2089   Thumb Code     2  rf_585.o(.text)
    rf_reset                                 0x07fc208b   Thumb Code     2  rf_585.o(.text)
    rf_force_agc_enable                      0x07fc208d   Thumb Code     2  rf_585.o(.text)
    rf_txpwr_dbm_get                         0x07fc208f   Thumb Code     4  rf_585.o(.text)
    rf_sleep                                 0x07fc2093   Thumb Code    14  rf_585.o(.text)
    RADIOCNTL_Handler                        0x07fc20a1   Thumb Code     2  rf_585.o(.text)
    rf_rssi_convert                          0x07fc20a3   Thumb Code     8  rf_585.o(.text)
    .text                                    0x07fc2200   Section        0  attm_db_128.o(.text)
    .text                                    0x07fc240c   Section        0  custom_common.o(.text)
    .text                                    0x07fc252c   Section        0  diss.o(.text)
    diss_init                                0x07fc2553   Thumb Code   142  diss.o(.text)
    diss_destroy                             0x07fc25e1   Thumb Code    36  diss.o(.text)
    diss_create                              0x07fc2605   Thumb Code     2  diss.o(.text)
    diss_cleanup                             0x07fc2607   Thumb Code     2  diss.o(.text)
    .text                                    0x07fc26a8   Section        0  diss_task.o(.text)
    diss_set_value_req_handler               0x07fc26a9   Thumb Code   158  diss_task.o(.text)
    gattc_read_req_ind_handler               0x07fc2747   Thumb Code   186  diss_task.o(.text)
    diss_value_cfm_handler                   0x07fc2801   Thumb Code   120  diss_task.o(.text)
    .text                                    0x07fc2880   Section        0  custs1.o(.text)
    custs1_init                              0x07fc2881   Thumb Code   190  custs1.o(.text)
    custs1_destroy                           0x07fc293f   Thumb Code    40  custs1.o(.text)
    custs1_create                            0x07fc2967   Thumb Code    64  custs1.o(.text)
    custs1_cleanup                           0x07fc29a7   Thumb Code    76  custs1.o(.text)
    .text                                    0x07fc2a14   Section        0  custs1_task.o(.text)
    custs1_att_set_value                     0x07fc2a15   Thumb Code   114  custs1_task.o(.text)
    custs1_att_get_value                     0x07fc2a87   Thumb Code    68  custs1_task.o(.text)
    custs1_exe_operation                     0x07fc2b43   Thumb Code   214  custs1_task.o(.text)
    gattc_cmp_evt_handler                    0x07fc2c19   Thumb Code    20  custs1_task.o(.text)
    custs1_val_set_req_handler               0x07fc2c2d   Thumb Code    32  custs1_task.o(.text)
    custs1_val_ntf_req_handler               0x07fc2c4d   Thumb Code    92  custs1_task.o(.text)
    custs1_val_ind_req_handler               0x07fc2ca9   Thumb Code    92  custs1_task.o(.text)
    custs1_att_info_rsp_handler              0x07fc2d05   Thumb Code    60  custs1_task.o(.text)
    gattc_read_req_ind_handler               0x07fc2d41   Thumb Code   230  custs1_task.o(.text)
    gattc_write_req_ind_handler              0x07fc2e27   Thumb Code   302  custs1_task.o(.text)
    gattc_att_info_req_ind_handler           0x07fc2f55   Thumb Code    66  custs1_task.o(.text)
    custs1_value_req_rsp_handler             0x07fc2f97   Thumb Code   120  custs1_task.o(.text)
    .text                                    0x07fc3018   Section        0  prf.o(.text)
    prf_itf_get                              0x07fc3205   Thumb Code    28  prf.o(.text)
    .text                                    0x07fc3224   Section        0  app_default_handlers.o(.text)
    .text                                    0x07fc32d8   Section        0  app.o(.text)
    app_task_in_user_app                     0x07fc32d9   Thumb Code    32  app.o(.text)
    app_db_init_next                         0x07fc32f9   Thumb Code   164  app.o(.text)
    app_easy_gap_undirected_advertise_start_create_msg 0x07fc3437   Thumb Code   122  app.o(.text)
    app_easy_gap_param_update_msg_create     0x07fc34f5   Thumb Code    66  app.o(.text)
    app_easy_gap_dev_config_create_msg       0x07fc3537   Thumb Code    94  app.o(.text)
    append_device_name                       0x07fc3687   Thumb Code    36  app.o(.text)
    .text                                    0x07fc36f0   Section        0  app_task.o(.text)
    gapm_device_ready_ind_handler            0x07fc36f1   Thumb Code    40  app_task.o(.text)
    gapm_cmp_evt_handler                     0x07fc3719   Thumb Code    88  app_task.o(.text)
    gapc_connection_req_ind_handler          0x07fc3771   Thumb Code    98  app_task.o(.text)
    gapc_cmp_evt_handler                     0x07fc37d3   Thumb Code    24  app_task.o(.text)
    gapc_disconnect_ind_handler              0x07fc37eb   Thumb Code    48  app_task.o(.text)
    gapc_get_dev_info_req_ind_handler        0x07fc381b   Thumb Code   162  app_task.o(.text)
    gapm_adv_report_ind_handler              0x07fc38bd   Thumb Code     4  app_task.o(.text)
    gapc_set_dev_info_req_ind_handler        0x07fc38c1   Thumb Code    52  app_task.o(.text)
    gapm_profile_added_ind_handler           0x07fc38f5   Thumb Code    36  app_task.o(.text)
    gapc_param_update_req_ind_handler        0x07fc3919   Thumb Code    38  app_task.o(.text)
    gapc_le_pkt_size_ind_handler             0x07fc393f   Thumb Code     4  app_task.o(.text)
    gattc_svc_changed_cfg_ind_handler        0x07fc3943   Thumb Code     4  app_task.o(.text)
    gapc_peer_features_ind_handler           0x07fc3947   Thumb Code     4  app_task.o(.text)
    .text                                    0x07fc3974   Section        0  app_diss.o(.text)
    .text                                    0x07fc39b0   Section        0  app_diss_task.o(.text)
    diss_value_req_ind_handler               0x07fc39b1   Thumb Code   116  app_diss_task.o(.text)
    .text                                    0x07fc3a90   Section        0  app_entry_point.o(.text)
    .text                                    0x07fc3b18   Section        0  app_msg_utils.o(.text)
    .text                                    0x07fc3b40   Section        0  app_easy_timer.o(.text)
    timer_canceled_handler                   0x07fc3b41   Thumb Code     2  app_easy_timer.o(.text)
    .text                                    0x07fc3b42   Section        0  app_easy_timer.o(.text)
    timer_modified_handler                   0x07fc3b43   Thumb Code     2  app_easy_timer.o(.text)
    .text                                    0x07fc3b44   Section        0  app_easy_timer.o(.text)
    create_timer                             0x07fc3b45   Thumb Code    56  app_easy_timer.o(.text)
    cancel_timer_handler                     0x07fc3cad   Thumb Code    82  app_easy_timer.o(.text)
    .text                                    0x07fc3d18   Section        0  app_customs.o(.text)
    .text                                    0x07fc3d78   Section        0  app_customs_task.o(.text)
    .text                                    0x07fc3d90   Section        0  user_periph_setup.o(.text)
    .text                                    0x07fc3f40   Section        0  user_custs1_impl.o(.text)
    .text                                    0x07fc40f8   Section        0  user_peripheral.o(.text)
    mnf_data_update                          0x07fc40f9   Thumb Code    34  user_peripheral.o(.text)
    adv_data_update_timer_cb                 0x07fc411b   Thumb Code    70  user_peripheral.o(.text)
    param_update_request_timer_cb            0x07fc4161   Thumb Code    18  user_peripheral.o(.text)
    app_add_ad_struct                        0x07fc4307   Thumb Code   130  user_peripheral.o(.text)
    .text                                    0x07fc43c4   Section        0  patch.o(.text)
    PATCHED_gapm_reset_cmd_handler           0x07fc4bed   Thumb Code    78  patch.o(.text)
    l2cc_handle_invalid_pdu                  0x07fc4ca9   Thumb Code   276  patch.o(.text)
    PATCHED_hci_acl_data_rx_handler          0x07fc4dbd   Thumb Code   620  patch.o(.text)
    PATCHED_smpc_recv_pair_rand_pdu          0x07fc5409   Thumb Code   306  patch.o(.text)
    PATCHED_llc_data_ind_handler             0x07fc55a5   Thumb Code   146  patch.o(.text)
    .text                                    0x07fc5920   Section        0  rf_calibration.o(.text)
    modulationGainCalibration_580            0x07fc5921   Thumb Code   222  rf_calibration.o(.text)
    .text                                    0x07fc5a1c   Section        0  rf_calibration.o(.text)
    .text                                    0x07fc5b04   Section        0  rf_calibration.o(.text)
    .text                                    0x07fc5cb4   Section        0  pll_vcocal_lut.o(.text)
    .text                                    0x07fc5cd8   Section        0  smpc_util.o(.text)
    .text                                    0x07fc5dc0   Section       36  init.o(.text)
    i.__scatterload_copy                     0x07fc5de4   Section       14  handlers.o(i.__scatterload_copy)
    i.__scatterload_null                     0x07fc5df2   Section        2  handlers.o(i.__scatterload_null)
    i.__scatterload_zeroinit                 0x07fc5df4   Section       14  handlers.o(i.__scatterload_zeroinit)
    .constdata                               0x07fc5e02   Section       14  nvds.o(.constdata)
    nvds_data_storage                        0x07fc5e02   Data          14  nvds.o(.constdata)
    .constdata                               0x07fc5e10   Section      388  jump_table.o(.constdata)
    .constdata                               0x07fc5f94   Section      188  jump_table.o(.constdata)
    .constdata                               0x07fc6050   Section       90  arch_system.o(.constdata)
    .constdata                               0x07fc60aa   Section        8  gpio.o(.constdata)
    p_mask                                   0x07fc60aa   Data           8  gpio.o(.constdata)
    .constdata                               0x07fc60b4   Section        4  adc_58x.o(.constdata)
    .constdata                               0x07fc60b8   Section      244  diss.o(.constdata)
    .constdata                               0x07fc61ac   Section       24  diss_task.o(.constdata)
    .constdata                               0x07fc61c4   Section        8  diss_task.o(.constdata)
    .constdata                               0x07fc61cc   Section       16  custs1.o(.constdata)
    .constdata                               0x07fc61dc   Section       72  custs1_task.o(.constdata)
    .constdata                               0x07fc6224   Section        8  custs1_task.o(.constdata)
    .constdata                               0x07fc622c   Section       80  app.o(.constdata)
    user_adv_conf                            0x07fc622c   Data          16  app.o(.constdata)
    user_prf_funcs                           0x07fc623c   Data          12  app.o(.constdata)
    TASK_DESC_APP                            0x07fc6260   Data          16  app.o(.constdata)
    <Data1>                                  0x07fc6270   Data          12  app.o(.constdata)
    .constdata                               0x07fc627c   Section      104  app_task.o(.constdata)
    app_gap_process_handlers                 0x07fc627c   Data         104  app_task.o(.constdata)
    .constdata                               0x07fc62e4   Section        8  app_task.o(.constdata)
    .constdata                               0x07fc62ec   Section        8  app_task.o(.constdata)
    .constdata                               0x07fc62f4   Section        8  app_diss_task.o(.constdata)
    app_diss_process_handlers                0x07fc62f4   Data           8  app_diss_task.o(.constdata)
    .constdata                               0x07fc62fc   Section       16  app_entry_point.o(.constdata)
    .constdata                               0x07fc630c   Section       56  user_custs_config.o(.constdata)
    .constdata                               0x07fc6344   Section       16  user_custs1_def.o(.constdata)
    custs1_svc1                              0x07fc6344   Data          16  user_custs1_def.o(.constdata)
    .constdata                               0x07fc6354   Section       16  user_custs1_def.o(.constdata)
    SVC1_CTRL_POINT_UUID_128                 0x07fc6354   Data          16  user_custs1_def.o(.constdata)
    .constdata                               0x07fc6364   Section       16  user_custs1_def.o(.constdata)
    SVC1_LED_STATE_UUID_128                  0x07fc6364   Data          16  user_custs1_def.o(.constdata)
    .constdata                               0x07fc6374   Section       16  user_custs1_def.o(.constdata)
    SVC1_ADC_VAL_1_UUID_128                  0x07fc6374   Data          16  user_custs1_def.o(.constdata)
    .constdata                               0x07fc6384   Section       16  user_custs1_def.o(.constdata)
    SVC1_ADC_VAL_2_UUID_128                  0x07fc6384   Data          16  user_custs1_def.o(.constdata)
    .constdata                               0x07fc6394   Section       16  user_custs1_def.o(.constdata)
    SVC1_BUTTON_STATE_UUID_128               0x07fc6394   Data          16  user_custs1_def.o(.constdata)
    .constdata                               0x07fc63a4   Section       16  user_custs1_def.o(.constdata)
    SVC1_INDICATEABLE_UUID_128               0x07fc63a4   Data          16  user_custs1_def.o(.constdata)
    .constdata                               0x07fc63b4   Section       16  user_custs1_def.o(.constdata)
    SVC1_LONG_VALUE_UUID_128                 0x07fc63b4   Data          16  user_custs1_def.o(.constdata)
    .constdata                               0x07fc63c4   Section       16  user_custs1_def.o(.constdata)
    custs1_svc2                              0x07fc63c4   Data          16  user_custs1_def.o(.constdata)
    .constdata                               0x07fc63d4   Section       16  user_custs1_def.o(.constdata)
    SVC2_WRITE_VAL_1_UUID_128                0x07fc63d4   Data          16  user_custs1_def.o(.constdata)
    .constdata                               0x07fc63e4   Section       16  user_custs1_def.o(.constdata)
    SVC2_WRITE_VAL_2_UUID_128                0x07fc63e4   Data          16  user_custs1_def.o(.constdata)
    .constdata                               0x07fc63f4   Section       16  user_custs1_def.o(.constdata)
    custs1_svc3                              0x07fc63f4   Data          16  user_custs1_def.o(.constdata)
    .constdata                               0x07fc6404   Section       16  user_custs1_def.o(.constdata)
    SVC3_READ_VAL_1_UUID_128                 0x07fc6404   Data          16  user_custs1_def.o(.constdata)
    .constdata                               0x07fc6414   Section       16  user_custs1_def.o(.constdata)
    SVC3_READ_VAL_2_UUID_128                 0x07fc6414   Data          16  user_custs1_def.o(.constdata)
    .constdata                               0x07fc6424   Section       16  user_custs1_def.o(.constdata)
    SVC3_READ_VAL_3_UUID_128                 0x07fc6424   Data          16  user_custs1_def.o(.constdata)
    .constdata                               0x07fc6434   Section       16  user_custs1_def.o(.constdata)
    SVC3_READ_VAL_4_UUID_128                 0x07fc6434   Data          16  user_custs1_def.o(.constdata)
    .constdata                               0x07fc6444   Section        2  user_custs1_def.o(.constdata)
    att_decl_svc                             0x07fc6444   Data           2  user_custs1_def.o(.constdata)
    .constdata                               0x07fc6446   Section        2  user_custs1_def.o(.constdata)
    att_decl_char                            0x07fc6446   Data           2  user_custs1_def.o(.constdata)
    .constdata                               0x07fc6448   Section        2  user_custs1_def.o(.constdata)
    att_desc_cfg                             0x07fc6448   Data           2  user_custs1_def.o(.constdata)
    .constdata                               0x07fc644a   Section        2  user_custs1_def.o(.constdata)
    att_desc_user_desc                       0x07fc644a   Data           2  user_custs1_def.o(.constdata)
    .constdata                               0x07fc644c   Section        4  user_custs1_def.o(.constdata)
    .constdata                               0x07fc6450   Section        1  user_custs1_def.o(.constdata)
    .constdata                               0x07fc6452   Section        2  user_custs1_def.o(.constdata)
    .constdata                               0x07fc6454   Section      960  user_custs1_def.o(.constdata)
    .constdata                               0x07fc6814   Section       24  user_periph_setup.o(.constdata)
    uart_cfg                                 0x07fc6814   Data          24  user_periph_setup.o(.constdata)
    .constdata                               0x07fc682c   Section      224  patch.o(.constdata)
    custom_msg_handlers                      0x07fc682c   Data          56  patch.o(.constdata)
    patch_new_table                          0x07fc6864   Data          56  patch.o(.constdata)
    patch_orig_table                         0x07fc689c   Data         112  patch.o(.constdata)
    .constdata                               0x07fc690c   Section       22  pll_vcocal_lut.o(.constdata)
    .conststring                             0x07fc6924   Section      190  user_custs1_def.o(.conststring)
    .data                                    0x07fc6a14   Section        4  arch_system.o(.data)
    .bss                                     0x07fc6a18   Section      256  arch_console.o(.bss)
    current_msg_buffer                       0x07fc6a18   Data         256  arch_console.o(.bss)
    .bss                                     0x07fc6b18   Section       48  i2c.o(.bss)
    i2c_env                                  0x07fc6b18   Data          48  i2c.o(.bss)
    .bss                                     0x07fc6b48   Section       16  trng.o(.bss)
    trng_bits                                0x07fc6b48   Data          16  trng.o(.bss)
    .bss                                     0x07fc6b58   Section        1  rwble.o(.bss)
    cal_failed                               0x07fc6b58   Data           1  rwble.o(.bss)
    STACK                                    0x07fc6b60   Section     1536  startup_da14585_586.o(STACK)
    heap_mem_area_not_ret                    0x07fc7160   Section     1036  jump_table.o(heap_mem_area_not_ret)
    retention_mem_area0                      0x07fd4804   Section        8  arch_console.o(retention_mem_area0)
    defer_sending                            0x07fd4804   Data           1  arch_console.o(retention_mem_area0)
    current_msg_offset                       0x07fd4805   Data           1  arch_console.o(retention_mem_area0)
    uart_busy                                0x07fd4806   Data           1  arch_console.o(retention_mem_area0)
    printf_msg_list                          0x07fd4808   Data           4  arch_console.o(retention_mem_area0)
    retention_mem_area0                      0x07fd480c   Section        8  arch_main.o(retention_mem_area0)
    ret_mode_for_non_ret_heap                0x07fd480c   Data           1  arch_main.o(retention_mem_area0)
    ret_mode                                 0x07fd480d   Data           1  arch_main.o(retention_mem_area0)
    ret_mode_for_ret_data                    0x07fd480e   Data           1  arch_main.o(retention_mem_area0)
    reinit_non_ret_heap                      0x07fd480f   Data           1  arch_main.o(retention_mem_area0)
    code_size                                0x07fd4810   Data           4  arch_main.o(retention_mem_area0)
    retention_mem_area0                      0x07fd4814   Section        4  arch_sleep.o(retention_mem_area0)
    sleep_md                                 0x07fd4814   Data           1  arch_sleep.o(retention_mem_area0)
    sleep_pend                               0x07fd4815   Data           1  arch_sleep.o(retention_mem_area0)
    sleep_cnt                                0x07fd4816   Data           1  arch_sleep.o(retention_mem_area0)
    sleep_ext_force                          0x07fd4817   Data           1  arch_sleep.o(retention_mem_area0)
    retention_mem_area0                      0x07fd4818   Section       48  arch_system.o(retention_mem_area0)
    retention_mem_area0                      0x07fd4848   Section        2  arch_rom.o(retention_mem_area0)
    retention_mem_area0                      0x07fd4850   Section      188  gpio.o(retention_mem_area0)
    retention_mem_area0                      0x07fd490c   Section        8  wkupct_quadec.o(retention_mem_area0)
    QUADDEC_callback                         0x07fd490c   Data           4  wkupct_quadec.o(retention_mem_area0)
    WKUPCT_callback                          0x07fd4910   Data           4  wkupct_quadec.o(retention_mem_area0)
    retention_mem_area0                      0x07fd4914   Section        4  adc_58x.o(retention_mem_area0)
    intr_cb                                  0x07fd4914   Data           4  adc_58x.o(retention_mem_area0)
    retention_mem_area0                      0x07fd4918   Section       64  uart.o(retention_mem_area0)
    uartn_env                                0x07fd4918   Data          64  uart.o(retention_mem_area0)
    retention_mem_area0                      0x07fd4958   Section       20  rwble.o(retention_mem_area0)
    success_cnt                              0x07fd495a   Data           2  rwble.o(retention_mem_area0)
    retention_mem_area0                      0x07fd496c   Section        8  rwip.o(retention_mem_area0)
    retention_mem_area0                      0x07fd4974   Section        4  rwip.o(retention_mem_area0)
    retention_mem_area0                      0x07fd4978   Section        1  rf_585.o(retention_mem_area0)
    near_field_mode                          0x07fd4978   Data           1  rf_585.o(retention_mem_area0)
    retention_mem_area0                      0x07fd497c   Section      768  prf.o(retention_mem_area0)
    retention_mem_area0                      0x07fd4c7c   Section       92  app.o(retention_mem_area0)
    i                                        0x07fd4c7c   Data           1  app.o(retention_mem_area0)
    k                                        0x07fd4c7d   Data           1  app.o(retention_mem_area0)
    j                                        0x07fd4c7e   Data           1  app.o(retention_mem_area0)
    adv_timer_id                             0x07fd4c7f   Data           1  app.o(retention_mem_area0)
    param_update_cmd                         0x07fd4c80   Data           4  app.o(retention_mem_area0)
    set_dev_config_cmd                       0x07fd4c84   Data           4  app.o(retention_mem_area0)
    adv_cmd                                  0x07fd4c88   Data           4  app.o(retention_mem_area0)
    start_connection_cmd                     0x07fd4c8c   Data           4  app.o(retention_mem_area0)
    adv_timeout_callback                     0x07fd4c90   Data           4  app.o(retention_mem_area0)
    retention_mem_area0                      0x07fd4cd8   Section        1  app_task.o(retention_mem_area0)
    retention_mem_area0                      0x07fd4cdc   Section       80  app_easy_timer.o(retention_mem_area0)
    timer_callbacks                          0x07fd4cdc   Data          40  app_easy_timer.o(retention_mem_area0)
    modified_timer_callbacks                 0x07fd4d04   Data          40  app_easy_timer.o(retention_mem_area0)
    retention_mem_area0                      0x07fd4d2c   Section        8  user_custs1_impl.o(retention_mem_area0)
    sample                                   0x07fd4d2c   Data           2  user_custs1_impl.o(retention_mem_area0)
    retention_mem_area0                      0x07fd4d34   Section       74  user_peripheral.o(retention_mem_area0)
    retention_mem_area0                      0x07fd4d7e   Section       40  pll_vcocal_lut.o(retention_mem_area0)
    heap_db_area                             0x07fd4da8   Section     1036  jump_table.o(heap_db_area)
    heap_env_area                            0x07fd51b4   Section      628  jump_table.o(heap_env_area)
    heap_msg_area                            0x07fd5428   Section     1404  jump_table.o(heap_msg_area)

    Global Symbols

    Symbol Name                              Value     Ov Type        Size  Object(Section)

    BuildAttributes$$THM_ISAv3M$S$PE$A:L22$X:L11$S22$IEEE1$IW$USESV6$~STKCKD$USESV7$~SHL$OSPACE$EBA8$MICROLIB$REQ8$PRES8$EABIv2 0x00000000   Number         0  anon$$obj.o ABSOLUTE
    __ARM_use_no_argv                        0x00000000   Number         0  arch_main.o ABSOLUTE
    __arm_fini_                               - Undefined Weak Reference
    __cpp_initialize__aeabi_                  - Undefined Weak Reference
    __cxa_finalize                            - Undefined Weak Reference
    __decompress                              - Undefined Weak Reference
    _clock_init                               - Undefined Weak Reference
    _microlib_exit                            - Undefined Weak Reference
    reset_indication                          - Undefined Weak Reference
    __Vectors_Size                           0x000000a0   Number         0  startup_da14585_586.o ABSOLUTE
    heap_mem_area_not_ret$$Length            0x0000040c   Number         0  anon$$obj.o ABSOLUTE
    Image$$ER_IROM3$$Length                  0x00006508   Number         0  anon$$obj.o ABSOLUTE
    uECC_vli_add                             0x07f02001   Thumb Code     0  da14585_symbols.txt ABSOLUTE
    uECC_vli_sub                             0x07f02019   Thumb Code     0  da14585_symbols.txt ABSOLUTE
    uECC_vli_mult                            0x07f02035   Thumb Code     0  da14585_symbols.txt ABSOLUTE
    set_system_clocks                        0x07f02151   Thumb Code     0  da14585_symbols.txt ABSOLUTE
    set_peripheral_clocks                    0x07f0216d   Thumb Code     0  da14585_symbols.txt ABSOLUTE
    rf_workaround_init                       0x07f021ad   Thumb Code     0  da14585_symbols.txt ABSOLUTE
    get_stack_usage                          0x07f021af   Thumb Code     0  da14585_symbols.txt ABSOLUTE
    rwip_eif_get_func                        0x07f021ed   Thumb Code     0  da14585_symbols.txt ABSOLUTE
    rwip_set_em_base                         0x07f021fd   Thumb Code     0  da14585_symbols.txt ABSOLUTE
    platform_initialization                  0x07f02203   Thumb Code     0  da14585_symbols.txt ABSOLUTE
    ble_init                                 0x07f022b5   Thumb Code     0  da14585_symbols.txt ABSOLUTE
    ble_regs_push                            0x07f02327   Thumb Code     0  da14585_symbols.txt ABSOLUTE
    ble_regs_pop                             0x07f0237f   Thumb Code     0  da14585_symbols.txt ABSOLUTE
    platform_sleep                           0x07f023d5   Thumb Code     0  da14585_symbols.txt ABSOLUTE
    rf_reinit                                0x07f026b9   Thumb Code     0  da14585_symbols.txt ABSOLUTE
    smpc_check_param                         0x07f026c1   Thumb Code     0  da14585_symbols.txt ABSOLUTE
    smpc_pdu_recv                            0x07f026cb   Thumb Code     0  da14585_symbols.txt ABSOLUTE
    lld_sleep_compensate                     0x07f026d5   Thumb Code     0  da14585_symbols.txt ABSOLUTE
    lld_sleep_init                           0x07f026df   Thumb Code     0  da14585_symbols.txt ABSOLUTE
    lld_sleep_us_2_lpcycles                  0x07f026e9   Thumb Code     0  da14585_symbols.txt ABSOLUTE
    lld_sleep_lpcycles_2_us                  0x07f026f3   Thumb Code     0  da14585_symbols.txt ABSOLUTE
    uart_flow_off                            0x07f026fd   Thumb Code     0  da14585_symbols.txt ABSOLUTE
    uart_finish_transfers                    0x07f02705   Thumb Code     0  da14585_symbols.txt ABSOLUTE
    uart_read                                0x07f0270d   Thumb Code     0  da14585_symbols.txt ABSOLUTE
    uart_write                               0x07f02715   Thumb Code     0  da14585_symbols.txt ABSOLUTE
    UART_Handler                             0x07f0271d   Thumb Code     0  da14585_symbols.txt ABSOLUTE
    uart_init                                0x07f02725   Thumb Code     0  da14585_symbols.txt ABSOLUTE
    uart_flow_on                             0x07f0272d   Thumb Code     0  da14585_symbols.txt ABSOLUTE
    gtl_init                                 0x07f02735   Thumb Code     0  da14585_symbols.txt ABSOLUTE
    gtl_eif_init                             0x07f0273d   Thumb Code     0  da14585_symbols.txt ABSOLUTE
    gtl_eif_read_start                       0x07f02745   Thumb Code     0  da14585_symbols.txt ABSOLUTE
    gtl_eif_read_hdr                         0x07f0274d   Thumb Code     0  da14585_symbols.txt ABSOLUTE
    gtl_eif_read_payl                        0x07f02755   Thumb Code     0  da14585_symbols.txt ABSOLUTE
    gtl_eif_tx_done                          0x07f0275d   Thumb Code     0  da14585_symbols.txt ABSOLUTE
    gtl_eif_rx_done                          0x07f02765   Thumb Code     0  da14585_symbols.txt ABSOLUTE
    h4tl_init                                0x07f0276d   Thumb Code     0  da14585_symbols.txt ABSOLUTE
    h4tl_read_start                          0x07f02775   Thumb Code     0  da14585_symbols.txt ABSOLUTE
    h4tl_read_hdr                            0x07f0277d   Thumb Code     0  da14585_symbols.txt ABSOLUTE
    h4tl_read_payl                           0x07f02785   Thumb Code     0  da14585_symbols.txt ABSOLUTE
    h4tl_read_next_out_of_sync               0x07f0278d   Thumb Code     0  da14585_symbols.txt ABSOLUTE
    h4tl_out_of_sync                         0x07f02795   Thumb Code     0  da14585_symbols.txt ABSOLUTE
    h4tl_tx_done                             0x07f0279d   Thumb Code     0  da14585_symbols.txt ABSOLUTE
    h4tl_rx_done                             0x07f027a5   Thumb Code     0  da14585_symbols.txt ABSOLUTE
    ke_task_init                             0x07f027ad   Thumb Code     0  da14585_symbols.txt ABSOLUTE
    ke_timer_init                            0x07f027b5   Thumb Code     0  da14585_symbols.txt ABSOLUTE
    llm_encryption_done                      0x07f027bd   Thumb Code     0  da14585_symbols.txt ABSOLUTE
    nvds_get                                 0x07f027c5   Thumb Code     0  da14585_symbols.txt ABSOLUTE
    nvds_del                                 0x07f027cd   Thumb Code     0  da14585_symbols.txt ABSOLUTE
    nvds_put                                 0x07f027d5   Thumb Code     0  da14585_symbols.txt ABSOLUTE
    rwip_eif_get                             0x07f027dd   Thumb Code     0  da14585_symbols.txt ABSOLUTE
    platform_reset                           0x07f027e5   Thumb Code     0  da14585_symbols.txt ABSOLUTE
    lld_test_stop                            0x07f027ef   Thumb Code     0  da14585_symbols.txt ABSOLUTE
    lld_test_mode_tx                         0x07f027f9   Thumb Code     0  da14585_symbols.txt ABSOLUTE
    lld_test_mode_rx                         0x07f02803   Thumb Code     0  da14585_symbols.txt ABSOLUTE
    prf_init                                 0x07f0280d   Thumb Code     0  da14585_symbols.txt ABSOLUTE
    prf_add_profile                          0x07f02817   Thumb Code     0  da14585_symbols.txt ABSOLUTE
    prf_create                               0x07f02821   Thumb Code     0  da14585_symbols.txt ABSOLUTE
    prf_cleanup                              0x07f0282b   Thumb Code     0  da14585_symbols.txt ABSOLUTE
    prf_get_id_from_task                     0x07f02835   Thumb Code     0  da14585_symbols.txt ABSOLUTE
    prf_get_task_from_id                     0x07f0283f   Thumb Code     0  da14585_symbols.txt ABSOLUTE
    nvds_init                                0x07f02849   Thumb Code     0  da14585_symbols.txt ABSOLUTE
    SetSystemVars                            0x07f02851   Thumb Code     0  da14585_symbols.txt ABSOLUTE
    dbg_init                                 0x07f0285b   Thumb Code     0  da14585_symbols.txt ABSOLUTE
    dbg_platform_reset_complete              0x07f02865   Thumb Code     0  da14585_symbols.txt ABSOLUTE
    hci_rd_local_supp_feats_cmd_handler      0x07f0286f   Thumb Code     0  da14585_symbols.txt ABSOLUTE
    l2cc_pdu_pack                            0x07f0287f   Thumb Code     0  da14585_symbols.txt ABSOLUTE
    l2cc_pdu_unpack                          0x07f02895   Thumb Code     0  da14585_symbols.txt ABSOLUTE
    l2c_send_lecb_message                    0x07f028ad   Thumb Code     0  da14585_symbols.txt ABSOLUTE
    l2c_process_sdu                          0x07f028b7   Thumb Code     0  da14585_symbols.txt ABSOLUTE
    l2cc_pdu_recv_ind_handler                0x07f028c1   Thumb Code     0  da14585_symbols.txt ABSOLUTE
    gapc_lecb_connect_cfm_handler            0x07f028d1   Thumb Code     0  da14585_symbols.txt ABSOLUTE
    atts_l2cc_pdu_recv_handler               0x07f028e1   Thumb Code     0  da14585_symbols.txt ABSOLUTE
    attc_l2cc_pdu_recv_handler               0x07f028eb   Thumb Code     0  da14585_symbols.txt ABSOLUTE
    crypto_init                              0x07f028f5   Thumb Code     0  da14585_symbols.txt ABSOLUTE
    llm_le_adv_report_ind                    0x07f028ff   Thumb Code     0  da14585_symbols.txt ABSOLUTE
    PK_PointMult                             0x07f02909   Thumb Code     0  da14585_symbols.txt ABSOLUTE
    llm_p256_start                           0x07f02913   Thumb Code     0  da14585_symbols.txt ABSOLUTE
    llm_create_p256_key                      0x07f0291d   Thumb Code     0  da14585_symbols.txt ABSOLUTE
    llm_p256_req_handler                     0x07f02929   Thumb Code     0  da14585_symbols.txt ABSOLUTE
    llc_le_length_effective                  0x07f0293b   Thumb Code     0  da14585_symbols.txt ABSOLUTE
    llc_le_length_conn_init                  0x07f02947   Thumb Code     0  da14585_symbols.txt ABSOLUTE
    lld_data_tx_prog                         0x07f02953   Thumb Code     0  da14585_symbols.txt ABSOLUTE
    lld_data_tx_check                        0x07f0295f   Thumb Code     0  da14585_symbols.txt ABSOLUTE
    llc_pdu_send                             0x07f0296b   Thumb Code     0  da14585_symbols.txt ABSOLUTE
    dia_rand                                 0x07f02977   Thumb Code     0  da14585_symbols.txt ABSOLUTE
    dia_srand                                0x07f02983   Thumb Code     0  da14585_symbols.txt ABSOLUTE
    llc_data_notif                           0x07f0298f   Thumb Code     0  da14585_symbols.txt ABSOLUTE
    ba431_get_rand                           0x07f029a9   Thumb Code     0  da14585_symbols.txt ABSOLUTE
    modulationGainCalibration                0x07f029b5   Thumb Code     0  da14585_symbols.txt ABSOLUTE
    DCoffsetCalibration                      0x07f029c1   Thumb Code     0  da14585_symbols.txt ABSOLUTE
    PllLF_IFF_MIX_CapCalibration             0x07f029cd   Thumb Code     0  da14585_symbols.txt ABSOLUTE
    smpc_public_key_exchange_start           0x07f029d9   Thumb Code     0  da14585_symbols.txt ABSOLUTE
    smpc_dhkey_calc_ind                      0x07f029e5   Thumb Code     0  da14585_symbols.txt ABSOLUTE
    smpm_ecdh_key_create                     0x07f029f1   Thumb Code     0  da14585_symbols.txt ABSOLUTE
    co_buf_init                              0x07f02a01   Thumb Code     0  da14585_symbols.txt ABSOLUTE
    co_buf_rx_free                           0x07f02ac7   Thumb Code     0  da14585_symbols.txt ABSOLUTE
    co_buf_rx_buffer_get                     0x07f02ae1   Thumb Code     0  da14585_symbols.txt ABSOLUTE
    co_buf_tx_buffer_get                     0x07f02aeb   Thumb Code     0  da14585_symbols.txt ABSOLUTE
    co_list_init                             0x07f02b15   Thumb Code     0  da14585_symbols.txt ABSOLUTE
    co_list_pop_front                        0x07f02b25   Thumb Code     0  da14585_symbols.txt ABSOLUTE
    co_list_flush                            0x07f02b47   Thumb Code     0  da14585_symbols.txt ABSOLUTE
    co_list_push_back                        0x07f02b5d   Thumb Code     0  da14585_symbols.txt ABSOLUTE
    co_list_pool_init                        0x07f02b81   Thumb Code     0  da14585_symbols.txt ABSOLUTE
    co_list_push_front                       0x07f02be9   Thumb Code     0  da14585_symbols.txt ABSOLUTE
    co_list_extract                          0x07f02c05   Thumb Code     0  da14585_symbols.txt ABSOLUTE
    co_list_find                             0x07f02c55   Thumb Code     0  da14585_symbols.txt ABSOLUTE
    co_list_merge                            0x07f02c6b   Thumb Code     0  da14585_symbols.txt ABSOLUTE
    co_list_insert_before                    0x07f02c87   Thumb Code     0  da14585_symbols.txt ABSOLUTE
    co_list_insert_after                     0x07f02cbf   Thumb Code     0  da14585_symbols.txt ABSOLUTE
    co_list_size                             0x07f02cfb   Thumb Code     0  da14585_symbols.txt ABSOLUTE
    co_bdaddr_compare                        0x07f02d0f   Thumb Code     0  da14585_symbols.txt ABSOLUTE
    llc_init                                 0x07f02d2d   Thumb Code     0  da14585_symbols.txt ABSOLUTE
    llc_stop                                 0x07f02d57   Thumb Code     0  da14585_symbols.txt ABSOLUTE
    llc_reset                                0x07f02d9d   Thumb Code     0  da14585_symbols.txt ABSOLUTE
    llc_le_length_effective_func             0x07f02dbf   Thumb Code     0  da14585_symbols.txt ABSOLUTE
    llc_le_length_conn_init_func             0x07f02e53   Thumb Code     0  da14585_symbols.txt ABSOLUTE
    llc_le_enh_con_cmp_evt_send              0x07f02eaf   Thumb Code     0  da14585_symbols.txt ABSOLUTE
    llc_le_con_cmp_evt_send                  0x07f02fc9   Thumb Code     0  da14585_symbols.txt ABSOLUTE
    llc_start                                0x07f03075   Thumb Code     0  da14585_symbols.txt ABSOLUTE
    llc_discon_event_complete_send           0x07f031e7   Thumb Code     0  da14585_symbols.txt ABSOLUTE
    llc_con_update_complete_send             0x07f03207   Thumb Code     0  da14585_symbols.txt ABSOLUTE
    llc_ltk_req_send                         0x07f03241   Thumb Code     0  da14585_symbols.txt ABSOLUTE
    llc_feats_rd_event_send                  0x07f03279   Thumb Code     0  da14585_symbols.txt ABSOLUTE
    llc_version_rd_event_send                0x07f032b5   Thumb Code     0  da14585_symbols.txt ABSOLUTE
    llc_common_cmd_complete_send             0x07f032e5   Thumb Code     0  da14585_symbols.txt ABSOLUTE
    llc_common_cmd_status_send               0x07f03303   Thumb Code     0  da14585_symbols.txt ABSOLUTE
    llc_common_flush_occurred_send           0x07f0331f   Thumb Code     0  da14585_symbols.txt ABSOLUTE
    llc_common_enc_key_ref_comp_evt_send     0x07f03337   Thumb Code     0  da14585_symbols.txt ABSOLUTE
    llc_common_enc_change_evt_send           0x07f03353   Thumb Code     0  da14585_symbols.txt ABSOLUTE
    llc_common_nb_of_pkt_comp_evt_send       0x07f033b9   Thumb Code     0  da14585_symbols.txt ABSOLUTE
    llc_con_update_ind                       0x07f033d9   Thumb Code     0  da14585_symbols.txt ABSOLUTE
    llc_lsto_con_update                      0x07f03453   Thumb Code     0  da14585_symbols.txt ABSOLUTE
    llc_map_update_ind                       0x07f03485   Thumb Code     0  da14585_symbols.txt ABSOLUTE
    llc_chnl_map_req_send                    0x07f03537   Thumb Code     0  da14585_symbols.txt ABSOLUTE
    llc_add_bad_chnl                         0x07f03553   Thumb Code     0  da14585_symbols.txt ABSOLUTE
    llc_pdu_send_func                        0x07f035f5   Thumb Code     0  da14585_symbols.txt ABSOLUTE
    llc_version_ind_pdu_send                 0x07f03665   Thumb Code     0  da14585_symbols.txt ABSOLUTE
    llc_ch_map_update_pdu_send               0x07f036b5   Thumb Code     0  da14585_symbols.txt ABSOLUTE
    llc_pause_enc_req_pdu_send               0x07f03705   Thumb Code     0  da14585_symbols.txt ABSOLUTE
    llc_pause_enc_rsp_pdu_send               0x07f03751   Thumb Code     0  da14585_symbols.txt ABSOLUTE
    llc_enc_req_pdu_send                     0x07f037b5   Thumb Code     0  da14585_symbols.txt ABSOLUTE
    llc_enc_rsp_pdu_send                     0x07f0387f   Thumb Code     0  da14585_symbols.txt ABSOLUTE
    llc_start_enc_rsp_pdu_send               0x07f0391b   Thumb Code     0  da14585_symbols.txt ABSOLUTE
    llc_reject_ind_pdu_send                  0x07f03971   Thumb Code     0  da14585_symbols.txt ABSOLUTE
    llc_con_update_pdu_send                  0x07f03a13   Thumb Code     0  da14585_symbols.txt ABSOLUTE
    llc_con_param_req_pdu_send               0x07f03a69   Thumb Code     0  da14585_symbols.txt ABSOLUTE
    llc_con_param_rsp_pdu_send               0x07f03af7   Thumb Code     0  da14585_symbols.txt ABSOLUTE
    llc_feats_req_pdu_send                   0x07f03b85   Thumb Code     0  da14585_symbols.txt ABSOLUTE
    llc_start_enc_req_pdu_send               0x07f03be5   Thumb Code     0  da14585_symbols.txt ABSOLUTE
    llc_terminate_ind_pdu_send               0x07f03c8b   Thumb Code     0  da14585_symbols.txt ABSOLUTE
    llc_unknown_rsp_send_pdu                 0x07f03cff   Thumb Code     0  da14585_symbols.txt ABSOLUTE
    llc_length_req_pdu_send                  0x07f03d33   Thumb Code     0  da14585_symbols.txt ABSOLUTE
    llc_length_rsp_pdu_send                  0x07f03de9   Thumb Code     0  da14585_symbols.txt ABSOLUTE
    llc_length_ind                           0x07f03e6f   Thumb Code     0  da14585_symbols.txt ABSOLUTE
    llc_ping_req_pdu_send                    0x07f03efb   Thumb Code     0  da14585_symbols.txt ABSOLUTE
    llc_ping_rsp_pdu_send                    0x07f03f2b   Thumb Code     0  da14585_symbols.txt ABSOLUTE
    llc_feats_req_ind                        0x07f03f5b   Thumb Code     0  da14585_symbols.txt ABSOLUTE
    llc_feats_rsp_ind                        0x07f03fbd   Thumb Code     0  da14585_symbols.txt ABSOLUTE
    llc_vers_ind_ind                         0x07f04015   Thumb Code     0  da14585_symbols.txt ABSOLUTE
    llc_terminate_ind                        0x07f04099   Thumb Code     0  da14585_symbols.txt ABSOLUTE
    llc_pause_enc_req_ind                    0x07f040d5   Thumb Code     0  da14585_symbols.txt ABSOLUTE
    llc_pause_enc_rsp_ind                    0x07f04105   Thumb Code     0  da14585_symbols.txt ABSOLUTE
    llc_enc_req_ind                          0x07f04179   Thumb Code     0  da14585_symbols.txt ABSOLUTE
    llc_enc_rsp_ind                          0x07f0421d   Thumb Code     0  da14585_symbols.txt ABSOLUTE
    llc_start_enc_req_ind                    0x07f042e1   Thumb Code     0  da14585_symbols.txt ABSOLUTE
    llc_start_enc_rsp_ind                    0x07f04343   Thumb Code     0  da14585_symbols.txt ABSOLUTE
    llc_cntl_rcv                             0x07f043cb   Thumb Code     0  da14585_symbols.txt ABSOLUTE
    llcp_con_param_req_pdu_unpk              0x07f04457   Thumb Code     0  da14585_symbols.txt ABSOLUTE
    llcp_con_param_rsp_pdu_unpk              0x07f044cf   Thumb Code     0  da14585_symbols.txt ABSOLUTE
    llc_con_update_req_ind                   0x07f04547   Thumb Code     0  da14585_symbols.txt ABSOLUTE
    llc_ch_map_req_ind                       0x07f045a1   Thumb Code     0  da14585_symbols.txt ABSOLUTE
    llc_data_rcv                             0x07f04615   Thumb Code     0  da14585_symbols.txt ABSOLUTE
    llcp_length_req_handler                  0x07f05fe3   Thumb Code     0  da14585_symbols.txt ABSOLUTE
    llc_util_get_free_conhdl                 0x07f063c5   Thumb Code     0  da14585_symbols.txt ABSOLUTE
    llc_util_dicon_procedure                 0x07f063f5   Thumb Code     0  da14585_symbols.txt ABSOLUTE
    llc_util_gen_skdx                        0x07f06457   Thumb Code     0  da14585_symbols.txt ABSOLUTE
    llc_util_update_channel_map              0x07f0646b   Thumb Code     0  da14585_symbols.txt ABSOLUTE
    llc_util_set_llcp_discard_enable         0x07f0647d   Thumb Code     0  da14585_symbols.txt ABSOLUTE
    llc_util_set_auth_payl_to_margin         0x07f06495   Thumb Code     0  da14585_symbols.txt ABSOLUTE
    llc_data_notif_func                      0x07f064bd   Thumb Code     0  da14585_symbols.txt ABSOLUTE
    lld_init                                 0x07f065c9   Thumb Code     0  da14585_symbols.txt ABSOLUTE
    lld_reset                                0x07f06717   Thumb Code     0  da14585_symbols.txt ABSOLUTE
    lld_adv_start                            0x07f06765   Thumb Code     0  da14585_symbols.txt ABSOLUTE
    lld_adv_stop                             0x07f068b3   Thumb Code     0  da14585_symbols.txt ABSOLUTE
    lld_scan_start                           0x07f068d9   Thumb Code     0  da14585_symbols.txt ABSOLUTE
    lld_scan_stop                            0x07f06a33   Thumb Code     0  da14585_symbols.txt ABSOLUTE
    lld_con_start                            0x07f06a6b   Thumb Code     0  da14585_symbols.txt ABSOLUTE
    lld_move_to_master                       0x07f06de3   Thumb Code     0  da14585_symbols.txt ABSOLUTE
    lld_con_update_req                       0x07f06e79   Thumb Code     0  da14585_symbols.txt ABSOLUTE
    lld_con_update_after_param_req           0x07f06ef3   Thumb Code     0  da14585_symbols.txt ABSOLUTE
    lld_con_param_rsp                        0x07f070d9   Thumb Code     0  da14585_symbols.txt ABSOLUTE
    lld_con_param_req                        0x07f071d3   Thumb Code     0  da14585_symbols.txt ABSOLUTE
    lld_con_stop                             0x07f072a5   Thumb Code     0  da14585_symbols.txt ABSOLUTE
    lld_get_mode                             0x07f072fb   Thumb Code     0  da14585_symbols.txt ABSOLUTE
    lld_move_to_slave                        0x07f0731f   Thumb Code     0  da14585_symbols.txt ABSOLUTE
    lld_ch_map_ind                           0x07f0749f   Thumb Code     0  da14585_symbols.txt ABSOLUTE
    lld_con_update_ind                       0x07f074b1   Thumb Code     0  da14585_symbols.txt ABSOLUTE
    lld_crypt_isr                            0x07f074bf   Thumb Code     0  da14585_symbols.txt ABSOLUTE
    lld_test_mode_tx_func                    0x07f074c9   Thumb Code     0  da14585_symbols.txt ABSOLUTE
    lld_test_mode_rx_func                    0x07f0756b   Thumb Code     0  da14585_symbols.txt ABSOLUTE
    lld_test_stop_func                       0x07f075ff   Thumb Code     0  da14585_symbols.txt ABSOLUTE
    lld_data_rx_check                        0x07f076bd   Thumb Code     0  da14585_symbols.txt ABSOLUTE
    lld_data_rx_flush                        0x07f07701   Thumb Code     0  da14585_symbols.txt ABSOLUTE
    lld_data_tx_check_func                   0x07f07725   Thumb Code     0  da14585_symbols.txt ABSOLUTE
    lld_data_tx_loop                         0x07f077cb   Thumb Code     0  da14585_symbols.txt ABSOLUTE
    lld_data_tx_push                         0x07f077f9   Thumb Code     0  da14585_symbols.txt ABSOLUTE
    lld_data_tx_prog_func                    0x07f0785b   Thumb Code     0  da14585_symbols.txt ABSOLUTE
    lld_data_tx_flush                        0x07f07991   Thumb Code     0  da14585_symbols.txt ABSOLUTE
    lld_evt_drift_compute                    0x07f07aa9   Thumb Code     0  da14585_symbols.txt ABSOLUTE
    lld_evt_elt_delete                       0x07f07b87   Thumb Code     0  da14585_symbols.txt ABSOLUTE
    lld_evt_channel_next                     0x07f07cc9   Thumb Code     0  da14585_symbols.txt ABSOLUTE
    lld_evt_deffered_elt_handler             0x07f08181   Thumb Code     0  da14585_symbols.txt ABSOLUTE
    lld_evt_init                             0x07f08253   Thumb Code     0  da14585_symbols.txt ABSOLUTE
    lld_evt_init_evt                         0x07f082c9   Thumb Code     0  da14585_symbols.txt ABSOLUTE
    lld_evt_elt_insert                       0x07f082e7   Thumb Code     0  da14585_symbols.txt ABSOLUTE
    lld_evt_conhdl2elt                       0x07f08311   Thumb Code     0  da14585_symbols.txt ABSOLUTE
    lld_evt_schedule_next                    0x07f0832d   Thumb Code     0  da14585_symbols.txt ABSOLUTE
    lld_evt_schedule                         0x07f08425   Thumb Code     0  da14585_symbols.txt ABSOLUTE
    lld_evt_prevent_stop                     0x07f08461   Thumb Code     0  da14585_symbols.txt ABSOLUTE
    lld_evt_canceled                         0x07f08463   Thumb Code     0  da14585_symbols.txt ABSOLUTE
    lld_evt_scan_create                      0x07f08487   Thumb Code     0  da14585_symbols.txt ABSOLUTE
    lld_evt_move_to_master                   0x07f08579   Thumb Code     0  da14585_symbols.txt ABSOLUTE
    lld_evt_update_create                    0x07f08673   Thumb Code     0  da14585_symbols.txt ABSOLUTE
    lld_evt_ch_map_update_req                0x07f087a9   Thumb Code     0  da14585_symbols.txt ABSOLUTE
    lld_evt_move_to_slave                    0x07f087c1   Thumb Code     0  da14585_symbols.txt ABSOLUTE
    lld_evt_slave_update                     0x07f089f1   Thumb Code     0  da14585_symbols.txt ABSOLUTE
    lld_evt_adv_create                       0x07f08a87   Thumb Code     0  da14585_symbols.txt ABSOLUTE
    lld_evt_end                              0x07f08b0b   Thumb Code     0  da14585_symbols.txt ABSOLUTE
    lld_evt_rx                               0x07f08c19   Thumb Code     0  da14585_symbols.txt ABSOLUTE
    lld_evt_timer_isr                        0x07f08c49   Thumb Code     0  da14585_symbols.txt ABSOLUTE
    lld_evt_end_isr                          0x07f08c53   Thumb Code     0  da14585_symbols.txt ABSOLUTE
    lld_evt_rx_isr                           0x07f08cd3   Thumb Code     0  da14585_symbols.txt ABSOLUTE
    lld_sleep_us_2_lpcycles_func             0x07f08e81   Thumb Code     0  da14585_symbols.txt ABSOLUTE
    lld_sleep_lpcycles_2_us_func             0x07f08e9f   Thumb Code     0  da14585_symbols.txt ABSOLUTE
    lld_sleep_enter                          0x07f08f9f   Thumb Code     0  da14585_symbols.txt ABSOLUTE
    lld_sleep_wakeup                         0x07f08fdf   Thumb Code     0  da14585_symbols.txt ABSOLUTE
    lld_sleep_wakeup_end                     0x07f08ff9   Thumb Code     0  da14585_symbols.txt ABSOLUTE
    lld_wlcoex_connection_complete           0x07f0901d   Thumb Code     0  da14585_symbols.txt ABSOLUTE
    lld_wlcoex_remove_connection             0x07f09035   Thumb Code     0  da14585_symbols.txt ABSOLUTE
    lld_wlcoex_set                           0x07f09049   Thumb Code     0  da14585_symbols.txt ABSOLUTE
    lld_util_get_bd_address                  0x07f0905d   Thumb Code     0  da14585_symbols.txt ABSOLUTE
    lld_util_set_bd_address                  0x07f0907d   Thumb Code     0  da14585_symbols.txt ABSOLUTE
    lld_util_freq2chnl                       0x07f090b9   Thumb Code     0  da14585_symbols.txt ABSOLUTE
    lld_util_get_local_offset                0x07f090db   Thumb Code     0  da14585_symbols.txt ABSOLUTE
    lld_util_get_peer_offset                 0x07f090f5   Thumb Code     0  da14585_symbols.txt ABSOLUTE
    lld_util_connection_param_set            0x07f09111   Thumb Code     0  da14585_symbols.txt ABSOLUTE
    llm_wl_clr                               0x07f09161   Thumb Code     0  da14585_symbols.txt ABSOLUTE
    llm_init                                 0x07f09189   Thumb Code     0  da14585_symbols.txt ABSOLUTE
    llm_common_cmd_complete_send             0x07f0938d   Thumb Code     0  da14585_symbols.txt ABSOLUTE
    llm_ble_ready                            0x07f093a5   Thumb Code     0  da14585_symbols.txt ABSOLUTE
    llm_wl_from_rl_restore                   0x07f093ab   Thumb Code     0  da14585_symbols.txt ABSOLUTE
    llm_con_req_ind                          0x07f0942d   Thumb Code     0  da14585_symbols.txt ABSOLUTE
    llm_resolv_addr                          0x07f096a3   Thumb Code     0  da14585_symbols.txt ABSOLUTE
    llm_util_rl_wl_update                    0x07f096e5   Thumb Code     0  da14585_symbols.txt ABSOLUTE
    llm_alter_conn                           0x07f0971f   Thumb Code     0  da14585_symbols.txt ABSOLUTE
    llm_adv_report_set                       0x07f097c3   Thumb Code     0  da14585_symbols.txt ABSOLUTE
    llm_direct_adv_report_set                0x07f0983d   Thumb Code     0  da14585_symbols.txt ABSOLUTE
    llm_encryption_start                     0x07f0987f   Thumb Code     0  da14585_symbols.txt ABSOLUTE
    llm_resolv_addr_inplace                  0x07f09903   Thumb Code     0  da14585_symbols.txt ABSOLUTE
    llm_le_adv_report_ind_func               0x07f099d5   Thumb Code     0  da14585_symbols.txt ABSOLUTE
    llm_con_req_tx_cfm                       0x07f09ee3   Thumb Code     0  da14585_symbols.txt ABSOLUTE
    llm_common_cmd_status_send               0x07f0a003   Thumb Code     0  da14585_symbols.txt ABSOLUTE
    llm_test_mode_start_tx                   0x07f0a01b   Thumb Code     0  da14585_symbols.txt ABSOLUTE
    llm_test_mode_start_rx                   0x07f0a10f   Thumb Code     0  da14585_symbols.txt ABSOLUTE
    llm_set_adv_param                        0x07f0a151   Thumb Code     0  da14585_symbols.txt ABSOLUTE
    llm_gen_rand_addr                        0x07f0a2e5   Thumb Code     0  da14585_symbols.txt ABSOLUTE
    llm_wl_from_rl                           0x07f0a3a1   Thumb Code     0  da14585_symbols.txt ABSOLUTE
    llm_set_adv_en                           0x07f0a4d3   Thumb Code     0  da14585_symbols.txt ABSOLUTE
    llm_set_adv_data                         0x07f0a7cf   Thumb Code     0  da14585_symbols.txt ABSOLUTE
    llm_set_scan_rsp_data                    0x07f0a883   Thumb Code     0  da14585_symbols.txt ABSOLUTE
    llm_set_scan_param                       0x07f0a94d   Thumb Code     0  da14585_symbols.txt ABSOLUTE
    llm_set_scan_en                          0x07f0a9d3   Thumb Code     0  da14585_symbols.txt ABSOLUTE
    llm_wl_dev_add                           0x07f0ab47   Thumb Code     0  da14585_symbols.txt ABSOLUTE
    llm_wl_dev_rem                           0x07f0ac21   Thumb Code     0  da14585_symbols.txt ABSOLUTE
    llm_create_con                           0x07f0ac75   Thumb Code     0  da14585_symbols.txt ABSOLUTE
    llm_encryption_done_func                 0x07f0af73   Thumb Code     0  da14585_symbols.txt ABSOLUTE
    llm_get_chnl_assess_nb_pkt               0x07f0b215   Thumb Code     0  da14585_symbols.txt ABSOLUTE
    llm_get_chnl_assess_nb_bad_pkt           0x07f0b21b   Thumb Code     0  da14585_symbols.txt ABSOLUTE
    llm_get_min_rssi                         0x07f0b221   Thumb Code     0  da14585_symbols.txt ABSOLUTE
    llm_le_scan_report_ind                   0x07f0b22b   Thumb Code     0  da14585_symbols.txt ABSOLUTE
    llm_set_tx_oct_time                      0x07f0b2c3   Thumb Code     0  da14585_symbols.txt ABSOLUTE
    llm_p256_start_func                      0x07f0b2eb   Thumb Code     0  da14585_symbols.txt ABSOLUTE
    llm_wlpub_addr_set                       0x07f0b369   Thumb Code     0  da14585_symbols.txt ABSOLUTE
    llm_wlpriv_addr_set                      0x07f0b395   Thumb Code     0  da14585_symbols.txt ABSOLUTE
    hci_rd_local_supp_feats_cmd_handler_func 0x07f0bb57   Thumb Code     0  da14585_symbols.txt ABSOLUTE
    llm_util_bd_addr_in_wl                   0x07f0c405   Thumb Code     0  da14585_symbols.txt ABSOLUTE
    llm_util_check_address_validity          0x07f0c47d   Thumb Code     0  da14585_symbols.txt ABSOLUTE
    llm_util_check_map_validity              0x07f0c48d   Thumb Code     0  da14585_symbols.txt ABSOLUTE
    llm_util_apply_bd_addr                   0x07f0c4d3   Thumb Code     0  da14585_symbols.txt ABSOLUTE
    llm_util_set_public_addr                 0x07f0c4eb   Thumb Code     0  da14585_symbols.txt ABSOLUTE
    llm_util_check_evt_mask                  0x07f0c4f9   Thumb Code     0  da14585_symbols.txt ABSOLUTE
    llm_util_get_channel_map                 0x07f0c51b   Thumb Code     0  da14585_symbols.txt ABSOLUTE
    llm_util_get_supp_features               0x07f0c529   Thumb Code     0  da14585_symbols.txt ABSOLUTE
    llm_util_adv_data_update                 0x07f0c535   Thumb Code     0  da14585_symbols.txt ABSOLUTE
    llm_util_bl_check                        0x07f0c559   Thumb Code     0  da14585_symbols.txt ABSOLUTE
    llm_util_bl_add                          0x07f0c59b   Thumb Code     0  da14585_symbols.txt ABSOLUTE
    llm_util_bl_rem                          0x07f0c5f1   Thumb Code     0  da14585_symbols.txt ABSOLUTE
    llm_util_rl_check                        0x07f0c641   Thumb Code     0  da14585_symbols.txt ABSOLUTE
    llm_util_rl_add                          0x07f0c677   Thumb Code     0  da14585_symbols.txt ABSOLUTE
    llm_util_rl_rem                          0x07f0c6f5   Thumb Code     0  da14585_symbols.txt ABSOLUTE
    llm_util_rl_peer_find                    0x07f0c71b   Thumb Code     0  da14585_symbols.txt ABSOLUTE
    llm_util_rl_peer_resolv                  0x07f0c747   Thumb Code     0  da14585_symbols.txt ABSOLUTE
    llm_util_rl_rpa_find                     0x07f0c799   Thumb Code     0  da14585_symbols.txt ABSOLUTE
    ea_time_get_slot_rounded                 0x07f0c8b9   Thumb Code     0  da14585_symbols.txt ABSOLUTE
    ea_init                                  0x07f0c985   Thumb Code     0  da14585_symbols.txt ABSOLUTE
    ea_elt_create                            0x07f0c9d9   Thumb Code     0  da14585_symbols.txt ABSOLUTE
    ea_time_get_halfslot_rounded             0x07f0c9f3   Thumb Code     0  da14585_symbols.txt ABSOLUTE
    ea_elt_insert                            0x07f0ca23   Thumb Code     0  da14585_symbols.txt ABSOLUTE
    ea_elt_remove                            0x07f0cc67   Thumb Code     0  da14585_symbols.txt ABSOLUTE
    ea_elt_delete                            0x07f0ccef   Thumb Code     0  da14585_symbols.txt ABSOLUTE
    ea_interval_create                       0x07f0cd09   Thumb Code     0  da14585_symbols.txt ABSOLUTE
    ea_interval_insert                       0x07f0cd1f   Thumb Code     0  da14585_symbols.txt ABSOLUTE
    ea_interval_delete                       0x07f0cd2d   Thumb Code     0  da14585_symbols.txt ABSOLUTE
    ea_finetimer_isr                         0x07f0cd47   Thumb Code     0  da14585_symbols.txt ABSOLUTE
    ea_sw_isr                                0x07f0ce19   Thumb Code     0  da14585_symbols.txt ABSOLUTE
    ea_offset_req                            0x07f0ce37   Thumb Code     0  da14585_symbols.txt ABSOLUTE
    ea_sleep_check                           0x07f0cff5   Thumb Code     0  da14585_symbols.txt ABSOLUTE
    ea_interval_duration_req                 0x07f0d04b   Thumb Code     0  da14585_symbols.txt ABSOLUTE
    flash_identify                           0x07f0d16b   Thumb Code     0  da14585_symbols.txt ABSOLUTE
    flash_init                               0x07f0d1b9   Thumb Code     0  da14585_symbols.txt ABSOLUTE
    flash_erase                              0x07f0d1f5   Thumb Code     0  da14585_symbols.txt ABSOLUTE
    flash_write                              0x07f0d259   Thumb Code     0  da14585_symbols.txt ABSOLUTE
    flash_read                               0x07f0d2bd   Thumb Code     0  da14585_symbols.txt ABSOLUTE
    uart_init_func                           0x07f0d34b   Thumb Code     0  da14585_symbols.txt ABSOLUTE
    uart_flow_on_func                        0x07f0d3a9   Thumb Code     0  da14585_symbols.txt ABSOLUTE
    uart_flow_off_func                       0x07f0d3b1   Thumb Code     0  da14585_symbols.txt ABSOLUTE
    uart_finish_transfers_func               0x07f0d401   Thumb Code     0  da14585_symbols.txt ABSOLUTE
    uart_read_func                           0x07f0d419   Thumb Code     0  da14585_symbols.txt ABSOLUTE
    uart_write_func                          0x07f0d42f   Thumb Code     0  da14585_symbols.txt ABSOLUTE
    UART_Handler_func                        0x07f0d451   Thumb Code     0  da14585_symbols.txt ABSOLUTE
    uart_set_flow_off_retries_limit          0x07f0d4a3   Thumb Code     0  da14585_symbols.txt ABSOLUTE
    modulationGainCalibration_func           0x07f0d595   Thumb Code     0  da14585_symbols.txt ABSOLUTE
    DCoffsetCalibration_func                 0x07f0d68b   Thumb Code     0  da14585_symbols.txt ABSOLUTE
    PllLF_IFF_MIX_CapCalibration_func        0x07f0d6d7   Thumb Code     0  da14585_symbols.txt ABSOLUTE
    gtl_init_func                            0x07f0d7e1   Thumb Code     0  da14585_symbols.txt ABSOLUTE
    gtl_enter_sleep                          0x07f0d809   Thumb Code     0  da14585_symbols.txt ABSOLUTE
    gtl_exit_sleep                           0x07f0d833   Thumb Code     0  da14585_symbols.txt ABSOLUTE
    gtl_send_msg                             0x07f0d83b   Thumb Code     0  da14585_symbols.txt ABSOLUTE
    gtl_eif_read_start_func                  0x07f0d8c1   Thumb Code     0  da14585_symbols.txt ABSOLUTE
    gtl_eif_read_hdr_func                    0x07f0d8e1   Thumb Code     0  da14585_symbols.txt ABSOLUTE
    gtl_eif_read_payl_func                   0x07f0d901   Thumb Code     0  da14585_symbols.txt ABSOLUTE
    gtl_eif_tx_done_func                     0x07f0d93f   Thumb Code     0  da14585_symbols.txt ABSOLUTE
    gtl_eif_rx_done_func                     0x07f0d94f   Thumb Code     0  da14585_symbols.txt ABSOLUTE
    gtl_eif_init_func                        0x07f0da81   Thumb Code     0  da14585_symbols.txt ABSOLUTE
    gtl_eif_write                            0x07f0da9b   Thumb Code     0  da14585_symbols.txt ABSOLUTE
    gtl_eif_start                            0x07f0dabd   Thumb Code     0  da14585_symbols.txt ABSOLUTE
    gtl_eif_stop                             0x07f0dac7   Thumb Code     0  da14585_symbols.txt ABSOLUTE
    gtl_env_curr_msg_type_set                0x07f0dae3   Thumb Code     0  da14585_symbols.txt ABSOLUTE
    hci_tl_send                              0x07f0ddc5   Thumb Code     0  da14585_symbols.txt ABSOLUTE
    hci_tl_init                              0x07f0de0d   Thumb Code     0  da14585_symbols.txt ABSOLUTE
    hci_cmd_get_max_param_size               0x07f0de31   Thumb Code     0  da14585_symbols.txt ABSOLUTE
    hci_cmd_received                         0x07f0de7b   Thumb Code     0  da14585_symbols.txt ABSOLUTE
    hci_acl_tx_data_alloc                    0x07f0dfb7   Thumb Code     0  da14585_symbols.txt ABSOLUTE
    hci_acl_tx_data_received                 0x07f0e03d   Thumb Code     0  da14585_symbols.txt ABSOLUTE
    hci_acl_rx_data_alloc                    0x07f0e105   Thumb Code     0  da14585_symbols.txt ABSOLUTE
    hci_acl_rx_data_received                 0x07f0e111   Thumb Code     0  da14585_symbols.txt ABSOLUTE
    hci_evt_received                         0x07f0e147   Thumb Code     0  da14585_symbols.txt ABSOLUTE
    hci_tl_env_tx_queue_cnt_get              0x07f0e2f3   Thumb Code     0  da14585_symbols.txt ABSOLUTE
    hci_util_pack                            0x07f0e411   Thumb Code     0  da14585_symbols.txt ABSOLUTE
    hci_util_unpack                          0x07f0e511   Thumb Code     0  da14585_symbols.txt ABSOLUTE
    hci_look_for_cmd_desc                    0x07f0e9f5   Thumb Code     0  da14585_symbols.txt ABSOLUTE
    hci_look_for_evt_desc                    0x07f0ea41   Thumb Code     0  da14585_symbols.txt ABSOLUTE
    hci_look_for_le_evt_desc                 0x07f0ea63   Thumb Code     0  da14585_symbols.txt ABSOLUTE
    hci_evt_mask_set                         0x07f0ea95   Thumb Code     0  da14585_symbols.txt ABSOLUTE
    hci_init                                 0x07f0eadd   Thumb Code     0  da14585_symbols.txt ABSOLUTE
    hci_reset                                0x07f0eaf9   Thumb Code     0  da14585_symbols.txt ABSOLUTE
    hci_send_2_host                          0x07f0eb11   Thumb Code     0  da14585_symbols.txt ABSOLUTE
    hci_send_2_controller                    0x07f0ebfb   Thumb Code     0  da14585_symbols.txt ABSOLUTE
    h4tl_read_start_func                     0x07f0ecd5   Thumb Code     0  da14585_symbols.txt ABSOLUTE
    h4tl_read_hdr_func                       0x07f0ecf3   Thumb Code     0  da14585_symbols.txt ABSOLUTE
    h4tl_read_payl_func                      0x07f0ed0f   Thumb Code     0  da14585_symbols.txt ABSOLUTE
    h4tl_read_next_out_of_sync_func          0x07f0ed29   Thumb Code     0  da14585_symbols.txt ABSOLUTE
    h4tl_out_of_sync_func                    0x07f0ed3d   Thumb Code     0  da14585_symbols.txt ABSOLUTE
    h4tl_out_of_sync_check                   0x07f0ed63   Thumb Code     0  da14585_symbols.txt ABSOLUTE
    h4tl_tx_done_func                        0x07f0edbf   Thumb Code     0  da14585_symbols.txt ABSOLUTE
    h4tl_rx_done_func                        0x07f0edd7   Thumb Code     0  da14585_symbols.txt ABSOLUTE
    h4tl_init_func                           0x07f0eefb   Thumb Code     0  da14585_symbols.txt ABSOLUTE
    h4tl_write                               0x07f0ef17   Thumb Code     0  da14585_symbols.txt ABSOLUTE
    h4tl_start                               0x07f0ef3f   Thumb Code     0  da14585_symbols.txt ABSOLUTE
    h4tl_stop                                0x07f0ef47   Thumb Code     0  da14585_symbols.txt ABSOLUTE
    h4tl_env_rx_type_set                     0x07f0ef5b   Thumb Code     0  da14585_symbols.txt ABSOLUTE
    h4tl_env_hdr_set                         0x07f0ef67   Thumb Code     0  da14585_symbols.txt ABSOLUTE
    attc_send_att_req                        0x07f0efa5   Thumb Code     0  da14585_symbols.txt ABSOLUTE
    attc_allocate_att_req                    0x07f0efe1   Thumb Code     0  da14585_symbols.txt ABSOLUTE
    attc_send_hdl_cfm                        0x07f0f003   Thumb Code     0  da14585_symbols.txt ABSOLUTE
    attc_send_execute                        0x07f0f019   Thumb Code     0  da14585_symbols.txt ABSOLUTE
    attc_send_read_ind                       0x07f0f033   Thumb Code     0  da14585_symbols.txt ABSOLUTE
    attc_l2cc_pdu_recv_handler_func          0x07f0f973   Thumb Code     0  da14585_symbols.txt ABSOLUTE
    attm_convert_to128                       0x07f0f9cd   Thumb Code     0  da14585_symbols.txt ABSOLUTE
    attm_uuid_comp                           0x07f0f9fd   Thumb Code     0  da14585_symbols.txt ABSOLUTE
    attm_uuid16_comp                         0x07f0fa55   Thumb Code     0  da14585_symbols.txt ABSOLUTE
    attm_is_bt16_uuid                        0x07f0fa61   Thumb Code     0  da14585_symbols.txt ABSOLUTE
    attm_is_bt32_uuid                        0x07f0fa87   Thumb Code     0  da14585_symbols.txt ABSOLUTE
    attmdb_add_service                       0x07f0fe87   Thumb Code     0  da14585_symbols.txt ABSOLUTE
    attmdb_destroy                           0x07f0ff0f   Thumb Code     0  da14585_symbols.txt ABSOLUTE
    attmdb_get_service                       0x07f0ff29   Thumb Code     0  da14585_symbols.txt ABSOLUTE
    attmdb_get_attribute                     0x07f0ff67   Thumb Code     0  da14585_symbols.txt ABSOLUTE
    attmdb_get_next_att                      0x07f0ff9b   Thumb Code     0  da14585_symbols.txt ABSOLUTE
    attmdb_uuid16_comp                       0x07f0ffff   Thumb Code     0  da14585_symbols.txt ABSOLUTE
    attmdb_att_set_value                     0x07f1003b   Thumb Code     0  da14585_symbols.txt ABSOLUTE
    attmdb_get_max_len                       0x07f100e7   Thumb Code     0  da14585_symbols.txt ABSOLUTE
    attmdb_get_uuid                          0x07f1014d   Thumb Code     0  da14585_symbols.txt ABSOLUTE
    attmdb_get_value                         0x07f10223   Thumb Code     0  da14585_symbols.txt ABSOLUTE
    attmdb_att_set_permission                0x07f10373   Thumb Code     0  da14585_symbols.txt ABSOLUTE
    attmdb_att_update_perm                   0x07f103e7   Thumb Code     0  da14585_symbols.txt ABSOLUTE
    attmdb_svc_get_permission                0x07f10455   Thumb Code     0  da14585_symbols.txt ABSOLUTE
    attmdb_att_get_permission                0x07f10473   Thumb Code     0  da14585_symbols.txt ABSOLUTE
    attmdb_svc_set_permission                0x07f10575   Thumb Code     0  da14585_symbols.txt ABSOLUTE
    attmdb_init                              0x07f10599   Thumb Code     0  da14585_symbols.txt ABSOLUTE
    attmdb_get_nb_svc                        0x07f105af   Thumb Code     0  da14585_symbols.txt ABSOLUTE
    attmdb_get_svc_info                      0x07f105c3   Thumb Code     0  da14585_symbols.txt ABSOLUTE
    attm_svc_create_db                       0x07f105f7   Thumb Code     0  da14585_symbols.txt ABSOLUTE
    attmdb_reserve_handle_range              0x07f10705   Thumb Code     0  da14585_symbols.txt ABSOLUTE
    atts_clear_read_cache                    0x07f10895   Thumb Code     0  da14585_symbols.txt ABSOLUTE
    atts_send_error                          0x07f109fd   Thumb Code     0  da14585_symbols.txt ABSOLUTE
    atts_write_signed_cfm                    0x07f10a19   Thumb Code     0  da14585_symbols.txt ABSOLUTE
    atts_send_event                          0x07f10a59   Thumb Code     0  da14585_symbols.txt ABSOLUTE
    atts_clear_prep_data                     0x07f10ae1   Thumb Code     0  da14585_symbols.txt ABSOLUTE
    atts_clear_rsp_data                      0x07f10b05   Thumb Code     0  da14585_symbols.txt ABSOLUTE
    atts_write_rsp_send                      0x07f10b55   Thumb Code     0  da14585_symbols.txt ABSOLUTE
    atts_mtu_exc_req                         0x07f10b75   Thumb Code     0  da14585_symbols.txt ABSOLUTE
    atts_l2cc_pdu_recv_handler_func          0x07f1177f   Thumb Code     0  da14585_symbols.txt ABSOLUTE
    atts_allocate_pdu                        0x07f11957   Thumb Code     0  da14585_symbols.txt ABSOLUTE
    atts_send_pdu                            0x07f11979   Thumb Code     0  da14585_symbols.txt ABSOLUTE
    gattc_cleanup                            0x07f119e7   Thumb Code     0  da14585_symbols.txt ABSOLUTE
    gattc_init                               0x07f11a6b   Thumb Code     0  da14585_symbols.txt ABSOLUTE
    gattc_update_state                       0x07f11a9d   Thumb Code     0  da14585_symbols.txt ABSOLUTE
    gattc_create                             0x07f11ac1   Thumb Code     0  da14585_symbols.txt ABSOLUTE
    gattc_con_enable                         0x07f11b35   Thumb Code     0  da14585_symbols.txt ABSOLUTE
    gattc_get_mtu                            0x07f11b3b   Thumb Code     0  da14585_symbols.txt ABSOLUTE
    gattc_set_mtu                            0x07f11b47   Thumb Code     0  da14585_symbols.txt ABSOLUTE
    gattc_get_requester                      0x07f11b8d   Thumb Code     0  da14585_symbols.txt ABSOLUTE
    gattc_send_complete_evt                  0x07f11ba9   Thumb Code     0  da14585_symbols.txt ABSOLUTE
    gattc_send_error_evt                     0x07f11c05   Thumb Code     0  da14585_symbols.txt ABSOLUTE
    gattc_get_operation                      0x07f11c2b   Thumb Code     0  da14585_symbols.txt ABSOLUTE
    gattc_get_op_seq_num                     0x07f11c41   Thumb Code     0  da14585_symbols.txt ABSOLUTE
    gattc_get_operation_ptr                  0x07f11c57   Thumb Code     0  da14585_symbols.txt ABSOLUTE
    gattc_set_operation_ptr                  0x07f11c63   Thumb Code     0  da14585_symbols.txt ABSOLUTE
    gattc_reschedule_operation               0x07f11c6f   Thumb Code     0  da14585_symbols.txt ABSOLUTE
    gattc_reallocate_svc                     0x07f11cb5   Thumb Code     0  da14585_symbols.txt ABSOLUTE
    gattm_svc_get_start_hdl                  0x07f12c6d   Thumb Code     0  da14585_symbols.txt ABSOLUTE
    gattm_init                               0x07f12c73   Thumb Code     0  da14585_symbols.txt ABSOLUTE
    gattm_init_attr                          0x07f12c91   Thumb Code     0  da14585_symbols.txt ABSOLUTE
    gattm_create                             0x07f12ce5   Thumb Code     0  da14585_symbols.txt ABSOLUTE
    gattm_cleanup                            0x07f12ced   Thumb Code     0  da14585_symbols.txt ABSOLUTE
    gattm_get_max_mtu                        0x07f12cf5   Thumb Code     0  da14585_symbols.txt ABSOLUTE
    gattm_set_max_mtu                        0x07f12cfb   Thumb Code     0  da14585_symbols.txt ABSOLUTE
    gattm_get_max_mps                        0x07f12d17   Thumb Code     0  da14585_symbols.txt ABSOLUTE
    gattm_set_max_mps                        0x07f12d1d   Thumb Code     0  da14585_symbols.txt ABSOLUTE
    l2cc_cleanup                             0x07f12f85   Thumb Code     0  da14585_symbols.txt ABSOLUTE
    l2cc_init                                0x07f12fc9   Thumb Code     0  da14585_symbols.txt ABSOLUTE
    l2cc_create                              0x07f12ffb   Thumb Code     0  da14585_symbols.txt ABSOLUTE
    l2cc_update_state                        0x07f13033   Thumb Code     0  da14585_symbols.txt ABSOLUTE
    l2cm_init                                0x07f13405   Thumb Code     0  da14585_symbols.txt ABSOLUTE
    l2cm_create                              0x07f13419   Thumb Code     0  da14585_symbols.txt ABSOLUTE
    l2cm_cleanup                             0x07f13421   Thumb Code     0  da14585_symbols.txt ABSOLUTE
    l2cm_set_link_layer_buff_size            0x07f13429   Thumb Code     0  da14585_symbols.txt ABSOLUTE
    smpc_send_use_enc_block_cmd              0x07f13439   Thumb Code     0  da14585_symbols.txt ABSOLUTE
    smpc_send_start_enc_cmd                  0x07f13471   Thumb Code     0  da14585_symbols.txt ABSOLUTE
    smpc_send_ltk_req_rsp                    0x07f134eb   Thumb Code     0  da14585_symbols.txt ABSOLUTE
    smpc_send_pairing_req_ind                0x07f13547   Thumb Code     0  da14585_symbols.txt ABSOLUTE
    smpc_send_pairing_ind                    0x07f1362b   Thumb Code     0  da14585_symbols.txt ABSOLUTE
    smpc_check_pairing_feat                  0x07f13747   Thumb Code     0  da14585_symbols.txt ABSOLUTE
    smpc_launch_rep_att_timer                0x07f13761   Thumb Code     0  da14585_symbols.txt ABSOLUTE
    smpc_check_repeated_attempts             0x07f1379d   Thumb Code     0  da14585_symbols.txt ABSOLUTE
    smpc_check_max_key_size                  0x07f137ff   Thumb Code     0  da14585_symbols.txt ABSOLUTE
    smpc_check_key_distrib                   0x07f13845   Thumb Code     0  da14585_symbols.txt ABSOLUTE
    smpc_xor                                 0x07f13885   Thumb Code     0  da14585_symbols.txt ABSOLUTE
    smpc_generate_l                          0x07f1389b   Thumb Code     0  da14585_symbols.txt ABSOLUTE
    smpc_generate_ci                         0x07f138e9   Thumb Code     0  da14585_symbols.txt ABSOLUTE
    smpc_generate_rand                       0x07f1394d   Thumb Code     0  da14585_symbols.txt ABSOLUTE
    smpc_generate_e1                         0x07f13973   Thumb Code     0  da14585_symbols.txt ABSOLUTE
    smpc_generate_cfm                        0x07f13a2d   Thumb Code     0  da14585_symbols.txt ABSOLUTE
    smpc_generate_stk                        0x07f13aa7   Thumb Code     0  da14585_symbols.txt ABSOLUTE
    smpc_calc_subkeys                        0x07f13afd   Thumb Code     0  da14585_symbols.txt ABSOLUTE
    smpc_clear_timeout_timer                 0x07f13b73   Thumb Code     0  da14585_symbols.txt ABSOLUTE
    smpc_pairing_end                         0x07f13b9d   Thumb Code     0  da14585_symbols.txt ABSOLUTE
    smpc_tkdp_rcp_continue                   0x07f13bfb   Thumb Code     0  da14585_symbols.txt ABSOLUTE
    smpc_tkdp_rcp_start                      0x07f13c75   Thumb Code     0  da14585_symbols.txt ABSOLUTE
    smpc_pdu_send                            0x07f13cc9   Thumb Code     0  da14585_symbols.txt ABSOLUTE
    smpc_tkdp_send_start                     0x07f13d67   Thumb Code     0  da14585_symbols.txt ABSOLUTE
    smpc_tkdp_send_continue                  0x07f13df3   Thumb Code     0  da14585_symbols.txt ABSOLUTE
    smpc_get_key_sec_prop                    0x07f13e6f   Thumb Code     0  da14585_symbols.txt ABSOLUTE
    smpc_is_sec_mode_reached                 0x07f13f3b   Thumb Code     0  da14585_symbols.txt ABSOLUTE
    smpc_handle_enc_change_evt               0x07f13f65   Thumb Code     0  da14585_symbols.txt ABSOLUTE
    smpc_pdu_recv_func                       0x07f1401f   Thumb Code     0  da14585_symbols.txt ABSOLUTE
    smpc_generate_subkey                     0x07f14089   Thumb Code     0  da14585_symbols.txt ABSOLUTE
    leftshift_onebit                         0x07f140bd   Thumb Code     0  da14585_symbols.txt ABSOLUTE
    padding                                  0x07f140d5   Thumb Code     0  da14585_symbols.txt ABSOLUTE
    smpc_generate_subkey_P2                  0x07f140f9   Thumb Code     0  da14585_symbols.txt ABSOLUTE
    AES_CMAC_block                           0x07f1419d   Thumb Code     0  da14585_symbols.txt ABSOLUTE
    smpc_generate_f4                         0x07f1425d   Thumb Code     0  da14585_symbols.txt ABSOLUTE
    smpc_generate_g2                         0x07f14371   Thumb Code     0  da14585_symbols.txt ABSOLUTE
    smpc_generate_f5                         0x07f1441b   Thumb Code     0  da14585_symbols.txt ABSOLUTE
    smpc_generate_f5_T                       0x07f1442d   Thumb Code     0  da14585_symbols.txt ABSOLUTE
    smpc_generate_f5_P2                      0x07f1449d   Thumb Code     0  da14585_symbols.txt ABSOLUTE
    smpc_generate_f6                         0x07f1466f   Thumb Code     0  da14585_symbols.txt ABSOLUTE
    smpm_send_encrypt_req                    0x07f14809   Thumb Code     0  da14585_symbols.txt ABSOLUTE
    smpm_send_gen_rand_nb_req                0x07f14837   Thumb Code     0  da14585_symbols.txt ABSOLUTE
    smpm_check_addr_type                     0x07f1484d   Thumb Code     0  da14585_symbols.txt ABSOLUTE
    gapc_update_state                        0x07f148b9   Thumb Code     0  da14585_symbols.txt ABSOLUTE
    gapc_get_requester                       0x07f148e9   Thumb Code     0  da14585_symbols.txt ABSOLUTE
    gapc_send_complete_evt                   0x07f14905   Thumb Code     0  da14585_symbols.txt ABSOLUTE
    gapc_init                                0x07f14a2f   Thumb Code     0  da14585_symbols.txt ABSOLUTE
    gapc_con_create                          0x07f14a61   Thumb Code     0  da14585_symbols.txt ABSOLUTE
    gapc_con_create_enh                      0x07f14b1b   Thumb Code     0  da14585_symbols.txt ABSOLUTE
    gapc_con_cleanup                         0x07f14c15   Thumb Code     0  da14585_symbols.txt ABSOLUTE
    gapc_send_disconect_ind                  0x07f14c25   Thumb Code     0  da14585_symbols.txt ABSOLUTE
    gapc_get_conidx                          0x07f14c47   Thumb Code     0  da14585_symbols.txt ABSOLUTE
    gapc_get_conhdl                          0x07f14c81   Thumb Code     0  da14585_symbols.txt ABSOLUTE
    gapc_get_role                            0x07f14c99   Thumb Code     0  da14585_symbols.txt ABSOLUTE
    gapc_get_bdaddr                          0x07f14cb5   Thumb Code     0  da14585_symbols.txt ABSOLUTE
    gapc_get_csrk                            0x07f14cd5   Thumb Code     0  da14585_symbols.txt ABSOLUTE
    gapc_get_sign_counter                    0x07f14cf3   Thumb Code     0  da14585_symbols.txt ABSOLUTE
    gapc_send_error_evt                      0x07f14d11   Thumb Code     0  da14585_symbols.txt ABSOLUTE
    gapc_get_operation                       0x07f14d33   Thumb Code     0  da14585_symbols.txt ABSOLUTE
    gapc_get_operation_ptr                   0x07f14d49   Thumb Code     0  da14585_symbols.txt ABSOLUTE
    gapc_set_operation_ptr                   0x07f14d55   Thumb Code     0  da14585_symbols.txt ABSOLUTE
    gapc_reschedule_operation                0x07f14d61   Thumb Code     0  da14585_symbols.txt ABSOLUTE
    gapc_get_enc_keysize                     0x07f14d91   Thumb Code     0  da14585_symbols.txt ABSOLUTE
    gapc_is_sec_set                          0x07f14da9   Thumb Code     0  da14585_symbols.txt ABSOLUTE
    gapc_set_enc_keysize                     0x07f14e35   Thumb Code     0  da14585_symbols.txt ABSOLUTE
    gapc_link_encrypted                      0x07f14e49   Thumb Code     0  da14585_symbols.txt ABSOLUTE
    gapc_auth_set                            0x07f14e63   Thumb Code     0  da14585_symbols.txt ABSOLUTE
    gapc_svc_chg_ccc_get                     0x07f14e83   Thumb Code     0  da14585_symbols.txt ABSOLUTE
    gapc_svc_chg_ccc_set                     0x07f14e93   Thumb Code     0  da14585_symbols.txt ABSOLUTE
    gapc_check_lecb_sec_perm                 0x07f14ea9   Thumb Code     0  da14585_symbols.txt ABSOLUTE
    gapc_search_lecb_channel                 0x07f14f11   Thumb Code     0  da14585_symbols.txt ABSOLUTE
    gapc_lecnx_check_tx                      0x07f14f4b   Thumb Code     0  da14585_symbols.txt ABSOLUTE
    gapc_lecnx_check_rx                      0x07f14f93   Thumb Code     0  da14585_symbols.txt ABSOLUTE
    gapc_lecnx_get_field                     0x07f14fd7   Thumb Code     0  da14585_symbols.txt ABSOLUTE
    gapc_process_op                          0x07f1504d   Thumb Code     0  da14585_symbols.txt ABSOLUTE
    gapc_param_update_sanity                 0x07f151c7   Thumb Code     0  da14585_symbols.txt ABSOLUTE
    gapc_param_cb_con_sanity                 0x07f151ef   Thumb Code     0  da14585_symbols.txt ABSOLUTE
    l2cc_pdu_recv_ind_handler_func           0x07f156ab   Thumb Code     0  da14585_symbols.txt ABSOLUTE
    gapc_lecb_connect_cfm_handler_func       0x07f16653   Thumb Code     0  da14585_symbols.txt ABSOLUTE
    gapm_init                                0x07f16a27   Thumb Code     0  da14585_symbols.txt ABSOLUTE
    gapm_init_attr                           0x07f16a83   Thumb Code     0  da14585_symbols.txt ABSOLUTE
    gapm_get_operation                       0x07f16aaf   Thumb Code     0  da14585_symbols.txt ABSOLUTE
    gapm_get_requester                       0x07f16ac1   Thumb Code     0  da14585_symbols.txt ABSOLUTE
    gapm_reschedule_operation                0x07f16ad9   Thumb Code     0  da14585_symbols.txt ABSOLUTE
    gapm_send_complete_evt                   0x07f16afb   Thumb Code     0  da14585_symbols.txt ABSOLUTE
    gapm_send_error_evt                      0x07f16b31   Thumb Code     0  da14585_symbols.txt ABSOLUTE
    gapm_con_create                          0x07f16b51   Thumb Code     0  da14585_symbols.txt ABSOLUTE
    gapm_con_enable                          0x07f16bd5   Thumb Code     0  da14585_symbols.txt ABSOLUTE
    gapm_con_cleanup                         0x07f16be1   Thumb Code     0  da14585_symbols.txt ABSOLUTE
    gapm_get_id_from_task                    0x07f16c11   Thumb Code     0  da14585_symbols.txt ABSOLUTE
    gapm_get_task_from_id                    0x07f16c51   Thumb Code     0  da14585_symbols.txt ABSOLUTE
    gapm_is_disc_connection                  0x07f16c8d   Thumb Code     0  da14585_symbols.txt ABSOLUTE
    gapm_adv_sanity                          0x07f17ab9   Thumb Code     0  da14585_symbols.txt ABSOLUTE
    gapm_adv_op_sanity                       0x07f17bad   Thumb Code     0  da14585_symbols.txt ABSOLUTE
    gapm_set_adv_mode                        0x07f17d2b   Thumb Code     0  da14585_symbols.txt ABSOLUTE
    gapm_set_adv_data                        0x07f17d45   Thumb Code     0  da14585_symbols.txt ABSOLUTE
    gapm_execute_adv_op                      0x07f17dd1   Thumb Code     0  da14585_symbols.txt ABSOLUTE
    gapm_scan_op_sanity                      0x07f17ef7   Thumb Code     0  da14585_symbols.txt ABSOLUTE
    gapm_set_scan_mode                       0x07f17fff   Thumb Code     0  da14585_symbols.txt ABSOLUTE
    gapm_execute_scan_op                     0x07f1801d   Thumb Code     0  da14585_symbols.txt ABSOLUTE
    gapm_connect_op_sanity                   0x07f180d7   Thumb Code     0  da14585_symbols.txt ABSOLUTE
    gapm_basic_hci_cmd_send                  0x07f18257   Thumb Code     0  da14585_symbols.txt ABSOLUTE
    gapm_execute_connect_op                  0x07f1826b   Thumb Code     0  da14585_symbols.txt ABSOLUTE
    gapm_get_role                            0x07f1840d   Thumb Code     0  da14585_symbols.txt ABSOLUTE
    gapm_get_ad_type_flag                    0x07f18415   Thumb Code     0  da14585_symbols.txt ABSOLUTE
    gapm_add_to_filter                       0x07f1843b   Thumb Code     0  da14585_symbols.txt ABSOLUTE
    gapm_is_filtered                         0x07f184bb   Thumb Code     0  da14585_symbols.txt ABSOLUTE
    gapm_update_air_op_state                 0x07f1851f   Thumb Code     0  da14585_symbols.txt ABSOLUTE
    gapm_get_irk                             0x07f185e7   Thumb Code     0  da14585_symbols.txt ABSOLUTE
    gapm_get_bdaddr                          0x07f185ed   Thumb Code     0  da14585_symbols.txt ABSOLUTE
    l2cc_pdu_pack_func                       0x07f18609   Thumb Code     0  da14585_symbols.txt ABSOLUTE
    l2cc_pdu_unpack_func                     0x07f18b01   Thumb Code     0  da14585_symbols.txt ABSOLUTE
    l2cc_detect_dest                         0x07f18e03   Thumb Code     0  da14585_symbols.txt ABSOLUTE
    l2c_process_sdu_func                     0x07f18e5f   Thumb Code     0  da14585_symbols.txt ABSOLUTE
    l2c_send_lecb_message_func               0x07f18f77   Thumb Code     0  da14585_symbols.txt ABSOLUTE
    smpc_check_param_func                    0x07f19071   Thumb Code     0  da14585_symbols.txt ABSOLUTE
    smpc_construct_id_addr_info_pdu          0x07f19157   Thumb Code     0  da14585_symbols.txt ABSOLUTE
    smpc_recv_pair_rand_pdu                  0x07f193e3   Thumb Code     0  da14585_symbols.txt ABSOLUTE
    smpc_recv_public_key_exchange_pdu        0x07f19647   Thumb Code     0  da14585_symbols.txt ABSOLUTE
    gapc_hci_handler                         0x07f19c73   Thumb Code     0  da14585_symbols.txt ABSOLUTE
    gapm_hci_handler                         0x07f1a8c1   Thumb Code     0  da14585_symbols.txt ABSOLUTE
    smpc_pairing_start                       0x07f1a951   Thumb Code     0  da14585_symbols.txt ABSOLUTE
    smpc_pairing_tk_exch                     0x07f1a9d7   Thumb Code     0  da14585_symbols.txt ABSOLUTE
    smpc_pairing_ltk_exch                    0x07f1aa95   Thumb Code     0  da14585_symbols.txt ABSOLUTE
    smpc_pairing_csrk_exch                   0x07f1aae9   Thumb Code     0  da14585_symbols.txt ABSOLUTE
    smpc_pairing_rsp                         0x07f1ab3f   Thumb Code     0  da14585_symbols.txt ABSOLUTE
    smpc_pairing_req_handler                 0x07f1ac23   Thumb Code     0  da14585_symbols.txt ABSOLUTE
    smpc_security_req_send                   0x07f1ac5b   Thumb Code     0  da14585_symbols.txt ABSOLUTE
    smpc_encrypt_start                       0x07f1ac85   Thumb Code     0  da14585_symbols.txt ABSOLUTE
    smpc_encrypt_start_handler               0x07f1acab   Thumb Code     0  da14585_symbols.txt ABSOLUTE
    smpc_encrypt_cfm                         0x07f1acdd   Thumb Code     0  da14585_symbols.txt ABSOLUTE
    smpc_sign_command                        0x07f1ad09   Thumb Code     0  da14585_symbols.txt ABSOLUTE
    smpc_sign_cont                           0x07f1ade1   Thumb Code     0  da14585_symbols.txt ABSOLUTE
    smpc_calc_confirm_cont                   0x07f1af87   Thumb Code     0  da14585_symbols.txt ABSOLUTE
    smpc_confirm_gen_rand                    0x07f1b4c9   Thumb Code     0  da14585_symbols.txt ABSOLUTE
    smpc_public_key_exchange_start_func      0x07f1b58f   Thumb Code     0  da14585_symbols.txt ABSOLUTE
    smpc_dhkey_calc_start                    0x07f1b5b3   Thumb Code     0  da14585_symbols.txt ABSOLUTE
    smpc_sec_authentication_start            0x07f1b601   Thumb Code     0  da14585_symbols.txt ABSOLUTE
    smpc_dhkey_calc_ind_func                 0x07f1b62f   Thumb Code     0  da14585_symbols.txt ABSOLUTE
    smpm_gen_rand_addr                       0x07f1b675   Thumb Code     0  da14585_symbols.txt ABSOLUTE
    smpm_resolv_addr                         0x07f1b68d   Thumb Code     0  da14585_symbols.txt ABSOLUTE
    smpm_use_enc_block                       0x07f1b6af   Thumb Code     0  da14585_symbols.txt ABSOLUTE
    smpm_gen_rand_nb                         0x07f1b6b7   Thumb Code     0  da14585_symbols.txt ABSOLUTE
    smpm_ecdh_key_create_func                0x07f1b6bf   Thumb Code     0  da14585_symbols.txt ABSOLUTE
    ke_init                                  0x07f1b6dd   Thumb Code     0  da14585_symbols.txt ABSOLUTE
    ke_flush                                 0x07f1b70f   Thumb Code     0  da14585_symbols.txt ABSOLUTE
    ke_sleep_check                           0x07f1b74f   Thumb Code     0  da14585_symbols.txt ABSOLUTE
    ke_stats_get                             0x07f1b761   Thumb Code     0  da14585_symbols.txt ABSOLUTE
    ke_event_init                            0x07f1b77d   Thumb Code     0  da14585_symbols.txt ABSOLUTE
    ke_event_callback_set                    0x07f1b789   Thumb Code     0  da14585_symbols.txt ABSOLUTE
    ke_event_set                             0x07f1b79d   Thumb Code     0  da14585_symbols.txt ABSOLUTE
    ke_event_clear                           0x07f1b7c9   Thumb Code     0  da14585_symbols.txt ABSOLUTE
    ke_event_get                             0x07f1b7f5   Thumb Code     0  da14585_symbols.txt ABSOLUTE
    ke_event_get_all                         0x07f1b81b   Thumb Code     0  da14585_symbols.txt ABSOLUTE
    ke_event_flush                           0x07f1b821   Thumb Code     0  da14585_symbols.txt ABSOLUTE
    ke_event_schedule                        0x07f1b829   Thumb Code     0  da14585_symbols.txt ABSOLUTE
    ke_mem_init                              0x07f1b879   Thumb Code     0  da14585_symbols.txt ABSOLUTE
    ke_mem_is_empty                          0x07f1b8c5   Thumb Code     0  da14585_symbols.txt ABSOLUTE
    ke_check_malloc                          0x07f1b905   Thumb Code     0  da14585_symbols.txt ABSOLUTE
    ke_malloc                                0x07f1b995   Thumb Code     0  da14585_symbols.txt ABSOLUTE
    ke_free                                  0x07f1ba8b   Thumb Code     0  da14585_symbols.txt ABSOLUTE
    ke_is_free                               0x07f1bb6d   Thumb Code     0  da14585_symbols.txt ABSOLUTE
    ke_get_mem_usage                         0x07f1bb7f   Thumb Code     0  da14585_symbols.txt ABSOLUTE
    ke_get_max_mem_usage                     0x07f1bb8b   Thumb Code     0  da14585_symbols.txt ABSOLUTE
    ke_msg_alloc                             0x07f1bbb1   Thumb Code     0  da14585_symbols.txt ABSOLUTE
    ke_msg_send                              0x07f1bbe3   Thumb Code     0  da14585_symbols.txt ABSOLUTE
    ke_msg_send_basic                        0x07f1bc0f   Thumb Code     0  da14585_symbols.txt ABSOLUTE
    ke_msg_forward                           0x07f1bc1d   Thumb Code     0  da14585_symbols.txt ABSOLUTE
    ke_msg_forward_new_id                    0x07f1bc27   Thumb Code     0  da14585_symbols.txt ABSOLUTE
    ke_msg_free                              0x07f1bc37   Thumb Code     0  da14585_symbols.txt ABSOLUTE
    ke_msg_dest_id_get                       0x07f1bc3f   Thumb Code     0  da14585_symbols.txt ABSOLUTE
    ke_msg_src_id_get                        0x07f1bc45   Thumb Code     0  da14585_symbols.txt ABSOLUTE
    ke_msg_in_queue                          0x07f1bc4b   Thumb Code     0  da14585_symbols.txt ABSOLUTE
    ke_queue_extract                         0x07f1bc5d   Thumb Code     0  da14585_symbols.txt ABSOLUTE
    ke_queue_insert                          0x07f1bcad   Thumb Code     0  da14585_symbols.txt ABSOLUTE
    ke_task_init_func                        0x07f1be3f   Thumb Code     0  da14585_symbols.txt ABSOLUTE
    ke_task_create                           0x07f1be53   Thumb Code     0  da14585_symbols.txt ABSOLUTE
    ke_task_delete                           0x07f1be8b   Thumb Code     0  da14585_symbols.txt ABSOLUTE
    ke_state_set                             0x07f1beb7   Thumb Code     0  da14585_symbols.txt ABSOLUTE
    ke_state_get                             0x07f1bf1b   Thumb Code     0  da14585_symbols.txt ABSOLUTE
    ke_msg_discard                           0x07f1bf39   Thumb Code     0  da14585_symbols.txt ABSOLUTE
    ke_msg_save                              0x07f1bf3d   Thumb Code     0  da14585_symbols.txt ABSOLUTE
    ke_task_msg_flush                        0x07f1bf41   Thumb Code     0  da14585_symbols.txt ABSOLUTE
    ke_timer_init_func                       0x07f1c049   Thumb Code     0  da14585_symbols.txt ABSOLUTE
    ke_timer_set                             0x07f1c055   Thumb Code     0  da14585_symbols.txt ABSOLUTE
    ke_timer_clear                           0x07f1c0e9   Thumb Code     0  da14585_symbols.txt ABSOLUTE
    ke_timer_active                          0x07f1c13f   Thumb Code     0  da14585_symbols.txt ABSOLUTE
    ke_timer_sleep_check                     0x07f1c165   Thumb Code     0  da14585_symbols.txt ABSOLUTE
    rwble_hl_reset                           0x07f1c28b   Thumb Code     0  da14585_symbols.txt ABSOLUTE
    rwble_hl_send_message                    0x07f1c2ad   Thumb Code     0  da14585_symbols.txt ABSOLUTE
    rwip_check_wakeup_boundary               0x07f1c2b1   Thumb Code     0  da14585_symbols.txt ABSOLUTE
    rwip_init                                0x07f1c2d7   Thumb Code     0  da14585_symbols.txt ABSOLUTE
    rwip_reset                               0x07f1c39b   Thumb Code     0  da14585_symbols.txt ABSOLUTE
    rwip_version                             0x07f1c3d3   Thumb Code     0  da14585_symbols.txt ABSOLUTE
    rwip_schedule                            0x07f1c3db   Thumb Code     0  da14585_symbols.txt ABSOLUTE
    rwip_prevent_sleep_set                   0x07f1c47f   Thumb Code     0  da14585_symbols.txt ABSOLUTE
    rwip_wakeup                              0x07f1c4a1   Thumb Code     0  da14585_symbols.txt ABSOLUTE
    rwip_prevent_sleep_clear                 0x07f1c4b7   Thumb Code     0  da14585_symbols.txt ABSOLUTE
    rwip_wakeup_end                          0x07f1c4d9   Thumb Code     0  da14585_symbols.txt ABSOLUTE
    rwip_wakeup_delay_set                    0x07f1c4f5   Thumb Code     0  da14585_symbols.txt ABSOLUTE
    rwip_sleep_enable                        0x07f1c503   Thumb Code     0  da14585_symbols.txt ABSOLUTE
    rwip_ext_wakeup_enable                   0x07f1c509   Thumb Code     0  da14585_symbols.txt ABSOLUTE
    rwble_init                               0x07f1c52d   Thumb Code     0  da14585_symbols.txt ABSOLUTE
    rwble_reset                              0x07f1c593   Thumb Code     0  da14585_symbols.txt ABSOLUTE
    rwble_version                            0x07f1c5c7   Thumb Code     0  da14585_symbols.txt ABSOLUTE
    rwble_send_message                       0x07f1c5f3   Thumb Code     0  da14585_symbols.txt ABSOLUTE
    YieldToScheduler                         0x07f1c6d9   Thumb Code     0  da14585_symbols.txt ABSOLUTE
    xorshift64star                           0x07f1c6e1   Thumb Code     0  da14585_symbols.txt ABSOLUTE
    uECC_set_rng                             0x07f1c747   Thumb Code     0  da14585_symbols.txt ABSOLUTE
    uECC_get_rng                             0x07f1c74d   Thumb Code     0  da14585_symbols.txt ABSOLUTE
    uECC_curve_private_key_size              0x07f1c753   Thumb Code     0  da14585_symbols.txt ABSOLUTE
    uECC_curve_public_key_size               0x07f1c763   Thumb Code     0  da14585_symbols.txt ABSOLUTE
    uECC_vli_clear                           0x07f1c76b   Thumb Code     0  da14585_symbols.txt ABSOLUTE
    uECC_vli_isZero                          0x07f1c781   Thumb Code     0  da14585_symbols.txt ABSOLUTE
    uECC_vli_testBit                         0x07f1c7a3   Thumb Code     0  da14585_symbols.txt ABSOLUTE
    uECC_vli_numBits                         0x07f1c7b5   Thumb Code     0  da14585_symbols.txt ABSOLUTE
    uECC_vli_set                             0x07f1c7ef   Thumb Code     0  da14585_symbols.txt ABSOLUTE
    uECC_vli_equal                           0x07f1c82d   Thumb Code     0  da14585_symbols.txt ABSOLUTE
    uECC_vli_cmp                             0x07f1c851   Thumb Code     0  da14585_symbols.txt ABSOLUTE
    uECC_vli_rshift1                         0x07f1c887   Thumb Code     0  da14585_symbols.txt ABSOLUTE
    uECC_vli_square                          0x07f1c8a5   Thumb Code     0  da14585_symbols.txt ABSOLUTE
    uECC_vli_modAdd                          0x07f1c8b1   Thumb Code     0  da14585_symbols.txt ABSOLUTE
    uECC_vli_modSub                          0x07f1c8df   Thumb Code     0  da14585_symbols.txt ABSOLUTE
    uECC_vli_mmod                            0x07f1c8ff   Thumb Code     0  da14585_symbols.txt ABSOLUTE
    uECC_vli_modMult                         0x07f1ca09   Thumb Code     0  da14585_symbols.txt ABSOLUTE
    uECC_vli_modMult_fast                    0x07f1ca2b   Thumb Code     0  da14585_symbols.txt ABSOLUTE
    uECC_vli_modSquare                       0x07f1ca4b   Thumb Code     0  da14585_symbols.txt ABSOLUTE
    uECC_vli_modSquare_fast                  0x07f1ca59   Thumb Code     0  da14585_symbols.txt ABSOLUTE
    uECC_vli_modInv                          0x07f1ca99   Thumb Code     0  da14585_symbols.txt ABSOLUTE
    uECC_secp256r1                           0x07f1cdd5   Thumb Code     0  da14585_symbols.txt ABSOLUTE
    uECC_vli_nativeToBytes                   0x07f1d3d3   Thumb Code     0  da14585_symbols.txt ABSOLUTE
    uECC_vli_bytesToNative                   0x07f1d3f5   Thumb Code     0  da14585_symbols.txt ABSOLUTE
    uECC_generate_random_int                 0x07f1d433   Thumb Code     0  da14585_symbols.txt ABSOLUTE
    uECC_make_key                            0x07f1d495   Thumb Code     0  da14585_symbols.txt ABSOLUTE
    uECC_shared_secret                       0x07f1d513   Thumb Code     0  da14585_symbols.txt ABSOLUTE
    uECC_compress                            0x07f1d5cf   Thumb Code     0  da14585_symbols.txt ABSOLUTE
    uECC_decompress                          0x07f1d5fd   Thumb Code     0  da14585_symbols.txt ABSOLUTE
    uECC_valid_point                         0x07f1d66d   Thumb Code     0  da14585_symbols.txt ABSOLUTE
    uECC_valid_public_key                    0x07f1d6cf   Thumb Code     0  da14585_symbols.txt ABSOLUTE
    uECC_compute_public_key                  0x07f1d703   Thumb Code     0  da14585_symbols.txt ABSOLUTE
    uECC_sign                                0x07f1d989   Thumb Code     0  da14585_symbols.txt ABSOLUTE
    uECC_sign_deterministic                  0x07f1da6f   Thumb Code     0  da14585_symbols.txt ABSOLUTE
    uECC_verify                              0x07f1dbdd   Thumb Code     0  da14585_symbols.txt ABSOLUTE
    uECC_curve_num_words                     0x07f1de89   Thumb Code     0  da14585_symbols.txt ABSOLUTE
    uECC_curve_num_bytes                     0x07f1de91   Thumb Code     0  da14585_symbols.txt ABSOLUTE
    uECC_curve_num_bits                      0x07f1de99   Thumb Code     0  da14585_symbols.txt ABSOLUTE
    uECC_curve_num_n_words                   0x07f1dea1   Thumb Code     0  da14585_symbols.txt ABSOLUTE
    uECC_curve_num_n_bytes                   0x07f1deb1   Thumb Code     0  da14585_symbols.txt ABSOLUTE
    uECC_curve_num_n_bits                    0x07f1dec1   Thumb Code     0  da14585_symbols.txt ABSOLUTE
    uECC_curve_p                             0x07f1dec9   Thumb Code     0  da14585_symbols.txt ABSOLUTE
    uECC_curve_n                             0x07f1decd   Thumb Code     0  da14585_symbols.txt ABSOLUTE
    uECC_curve_G                             0x07f1ded1   Thumb Code     0  da14585_symbols.txt ABSOLUTE
    uECC_curve_b                             0x07f1ded5   Thumb Code     0  da14585_symbols.txt ABSOLUTE
    uECC_vli_mod_sqrt                        0x07f1ded9   Thumb Code     0  da14585_symbols.txt ABSOLUTE
    uECC_vli_mmod_fast                       0x07f1dedf   Thumb Code     0  da14585_symbols.txt ABSOLUTE
    uECC_point_mult                          0x07f1dee5   Thumb Code     0  da14585_symbols.txt ABSOLUTE
    __aeabi_uidiv                            0x07f1dfb9   Thumb Code     0  da14585_symbols.txt ABSOLUTE
    __aeabi_uidivmod                         0x07f1dfb9   Thumb Code     0  da14585_symbols.txt ABSOLUTE
    __aeabi_idiv                             0x07f1dfe5   Thumb Code     0  da14585_symbols.txt ABSOLUTE
    __aeabi_idivmod                          0x07f1dfe5   Thumb Code     0  da14585_symbols.txt ABSOLUTE
    __aeabi_lmul                             0x07f1e00d   Thumb Code     0  da14585_symbols.txt ABSOLUTE
    _ll_mul                                  0x07f1e00d   Thumb Code     0  da14585_symbols.txt ABSOLUTE
    rand                                     0x07f1e089   Thumb Code     0  da14585_symbols.txt ABSOLUTE
    srand                                    0x07f1e09b   Thumb Code     0  da14585_symbols.txt ABSOLUTE
    __aeabi_memcpy                           0x07f1e0ad   Thumb Code     0  da14585_symbols.txt ABSOLUTE
    __aeabi_memcpy4                          0x07f1e0ad   Thumb Code     0  da14585_symbols.txt ABSOLUTE
    __aeabi_memcpy8                          0x07f1e0ad   Thumb Code     0  da14585_symbols.txt ABSOLUTE
    __aeabi_memset                           0x07f1e0d1   Thumb Code     0  da14585_symbols.txt ABSOLUTE
    __aeabi_memset4                          0x07f1e0d1   Thumb Code     0  da14585_symbols.txt ABSOLUTE
    __aeabi_memset8                          0x07f1e0d1   Thumb Code     0  da14585_symbols.txt ABSOLUTE
    __aeabi_memclr                           0x07f1e0df   Thumb Code     0  da14585_symbols.txt ABSOLUTE
    __aeabi_memclr4                          0x07f1e0df   Thumb Code     0  da14585_symbols.txt ABSOLUTE
    __aeabi_memclr8                          0x07f1e0df   Thumb Code     0  da14585_symbols.txt ABSOLUTE
    _memset$wrapper                          0x07f1e0e3   Thumb Code     0  da14585_symbols.txt ABSOLUTE
    memcmp                                   0x07f1e0f5   Thumb Code     0  da14585_symbols.txt ABSOLUTE
    __aeabi_uread4                           0x07f1e10f   Thumb Code     0  da14585_symbols.txt ABSOLUTE
    __rt_uread4                              0x07f1e10f   Thumb Code     0  da14585_symbols.txt ABSOLUTE
    _uread4                                  0x07f1e10f   Thumb Code     0  da14585_symbols.txt ABSOLUTE
    __aeabi_uwrite4                          0x07f1e123   Thumb Code     0  da14585_symbols.txt ABSOLUTE
    __rt_uwrite4                             0x07f1e123   Thumb Code     0  da14585_symbols.txt ABSOLUTE
    _uwrite4                                 0x07f1e123   Thumb Code     0  da14585_symbols.txt ABSOLUTE
    __aeabi_llsl                             0x07f1e135   Thumb Code     0  da14585_symbols.txt ABSOLUTE
    _ll_shift_l                              0x07f1e135   Thumb Code     0  da14585_symbols.txt ABSOLUTE
    __ARM_common_switch8                     0x07f1e155   Thumb Code     0  da14585_symbols.txt ABSOLUTE
    uart_api                                 0x07f1e170   Data           0  da14585_symbols.txt ABSOLUTE
    co_sca2ppm                               0x07f1e180   Data           0  da14585_symbols.txt ABSOLUTE
    co_null_bdaddr                           0x07f1e190   Data           0  da14585_symbols.txt ABSOLUTE
    co_default_bdaddr                        0x07f1e196   Data           0  da14585_symbols.txt ABSOLUTE
    llc_state_handler                        0x07f1e41c   Data           0  da14585_symbols.txt ABSOLUTE
    llc_default_handler                      0x07f1e4ec   Data           0  da14585_symbols.txt ABSOLUTE
    llm_dflt_bdaddr                          0x07f1e504   Data           0  da14585_symbols.txt ABSOLUTE
    llm_local_cmds                           0x07f1e51c   Data           0  da14585_symbols.txt ABSOLUTE
    llm_local_le_feats                       0x07f1e55c   Data           0  da14585_symbols.txt ABSOLUTE
    llm_local_le_states                      0x07f1e564   Data           0  da14585_symbols.txt ABSOLUTE
    llm_state_handler                        0x07f1e74c   Data           0  da14585_symbols.txt ABSOLUTE
    llm_default_handler                      0x07f1e77c   Data           0  da14585_symbols.txt ABSOLUTE
    LLM_AA_CT1                               0x07f1e784   Data           0  da14585_symbols.txt ABSOLUTE
    LLM_AA_CT2                               0x07f1e787   Data           0  da14585_symbols.txt ABSOLUTE
    ecc_p256_G                               0x07f1e789   Data           0  da14585_symbols.txt ABSOLUTE
    gtl_default_state                        0x07f1e7dc   Data           0  da14585_symbols.txt ABSOLUTE
    gtl_default_handler                      0x07f1e7e4   Data           0  da14585_symbols.txt ABSOLUTE
    hci_cmd_desc_tab_lk_ctrl                 0x07f1e7f0   Data           0  da14585_symbols.txt ABSOLUTE
    hci_cmd_desc_tab_ctrl_bb                 0x07f1e814   Data           0  da14585_symbols.txt ABSOLUTE
    hci_cmd_desc_tab_info_par                0x07f1e88c   Data           0  da14585_symbols.txt ABSOLUTE
    hci_cmd_desc_tab_stat_par                0x07f1e8c8   Data           0  da14585_symbols.txt ABSOLUTE
    hci_cmd_desc_tab_le                      0x07f1e8d4   Data           0  da14585_symbols.txt ABSOLUTE
    hci_cmd_desc_tab_vs                      0x07f1eb14   Data           0  da14585_symbols.txt ABSOLUTE
    rom_hci_cmd_desc_root_tab                0x07f1ec58   Data           0  da14585_symbols.txt ABSOLUTE
    hci_evt_desc_tab                         0x07f1ec88   Data           0  da14585_symbols.txt ABSOLUTE
    hci_evt_le_desc_tab                      0x07f1ecd0   Data           0  da14585_symbols.txt ABSOLUTE
    attc_handlers                            0x07f1ed40   Data           0  da14585_symbols.txt ABSOLUTE
    atts_handlers                            0x07f1edb0   Data           0  da14585_symbols.txt ABSOLUTE
    gattc_default_state                      0x07f1ee30   Data           0  da14585_symbols.txt ABSOLUTE
    gattc_default_handler                    0x07f1ef10   Data           0  da14585_symbols.txt ABSOLUTE
    gattm_default_state                      0x07f1ef5c   Data           0  da14585_symbols.txt ABSOLUTE
    gattm_default_handler                    0x07f1efb4   Data           0  da14585_symbols.txt ABSOLUTE
    l2cc_default_state                       0x07f1efcc   Data           0  da14585_symbols.txt ABSOLUTE
    l2cc_default_handler                     0x07f1efe4   Data           0  da14585_symbols.txt ABSOLUTE
    const_Rb                                 0x07f1f005   Data           0  da14585_symbols.txt ABSOLUTE
    const_Zero                               0x07f1f015   Data           0  da14585_symbols.txt ABSOLUTE
    gapc_default_state                       0x07f1f038   Data           0  da14585_symbols.txt ABSOLUTE
    gapc_default_handler                     0x07f1f188   Data           0  da14585_symbols.txt ABSOLUTE
    gapm_default_state                       0x07f1f224   Data           0  da14585_symbols.txt ABSOLUTE
    gapm_default_handler                     0x07f1f30c   Data           0  da14585_symbols.txt ABSOLUTE
    l2cc_connor_pkt_format                   0x07f1f314   Data           0  da14585_symbols.txt ABSOLUTE
    l2cc_signaling_pkt_format                0x07f1f31c   Data           0  da14585_symbols.txt ABSOLUTE
    l2cc_security_pkt_format                 0x07f1f378   Data           0  da14585_symbols.txt ABSOLUTE
    l2cc_attribute_pkt_format                0x07f1f3b4   Data           0  da14585_symbols.txt ABSOLUTE
    smpc_construct_pdu                       0x07f1f430   Data           0  da14585_symbols.txt ABSOLUTE
    __Vectors                                0x07fc0000   Data           4  startup_da14585_586.o(RESET)
    __Vectors_End                            0x07fc00a0   Data           0  startup_da14585_586.o(RESET)
    Image$$ER_IROM3$$Base                    0x07fc0510   Number         0  anon$$obj.o ABSOLUTE
    __main                                   0x07fc0511   Thumb Code     0  entry.o(.ARM.Collect$$$$00000000)
    _main_stk                                0x07fc0511   Thumb Code     0  entry2.o(.ARM.Collect$$$$00000001)
    _main_scatterload                        0x07fc0515   Thumb Code     0  entry5.o(.ARM.Collect$$$$00000004)
    __main_after_scatterload                 0x07fc0519   Thumb Code     0  entry5.o(.ARM.Collect$$$$00000004)
    _main_clock                              0x07fc0519   Thumb Code     0  entry7b.o(.ARM.Collect$$$$00000008)
    _main_cpp_init                           0x07fc0519   Thumb Code     0  entry8b.o(.ARM.Collect$$$$0000000A)
    _main_init                               0x07fc0519   Thumb Code     0  entry9a.o(.ARM.Collect$$$$0000000B)
    __rt_lib_shutdown_fini                   0x07fc0521   Thumb Code     0  entry12b.o(.ARM.Collect$$$$0000000E)
    __rt_final_cpp                           0x07fc0525   Thumb Code     0  entry10a.o(.ARM.Collect$$$$0000000F)
    __rt_final_exit                          0x07fc0525   Thumb Code     0  entry11a.o(.ARM.Collect$$$$00000011)
    SystemInit                               0x07fc0529   Thumb Code    38  system_da14585_586.o(.text)
    Reset_Handler                            0x07fc0571   Thumb Code     8  startup_da14585_586.o(.text)
    SVC_Handler                              0x07fc05a9   Thumb Code     2  startup_da14585_586.o(.text)
    PendSV_Handler                           0x07fc05ab   Thumb Code     2  startup_da14585_586.o(.text)
    SysTick_Handler                          0x07fc05ad   Thumb Code     2  startup_da14585_586.o(.text)
    BLE_RF_DIAG_Handler                      0x07fc05af   Thumb Code     0  startup_da14585_586.o(.text)
    DMA_Handler                              0x07fc05af   Thumb Code     0  startup_da14585_586.o(.text)
    KEYBRD_Handler                           0x07fc05af   Thumb Code     0  startup_da14585_586.o(.text)
    PCM_Handler                              0x07fc05af   Thumb Code     0  startup_da14585_586.o(.text)
    RESERVED21_Handler                       0x07fc05af   Thumb Code     0  startup_da14585_586.o(.text)
    RESERVED22_Handler                       0x07fc05af   Thumb Code     0  startup_da14585_586.o(.text)
    RESERVED23_Handler                       0x07fc05af   Thumb Code     0  startup_da14585_586.o(.text)
    RFCAL_Handler                            0x07fc05af   Thumb Code     0  startup_da14585_586.o(.text)
    SPI_Handler                              0x07fc05af   Thumb Code     0  startup_da14585_586.o(.text)
    SRCIN_Handler                            0x07fc05af   Thumb Code     0  startup_da14585_586.o(.text)
    SRCOUT_Handler                           0x07fc05af   Thumb Code     0  startup_da14585_586.o(.text)
    SWTIM_Handler                            0x07fc05af   Thumb Code     0  startup_da14585_586.o(.text)
    HardFault_HandlerC                       0x07fc05c1   Thumb Code    92  hardfault_handler.o(.text)
    NMI_HandlerC                             0x07fc0629   Thumb Code   140  nmi_handler.o(.text)
    arch_printf_flush                        0x07fc0713   Thumb Code   122  arch_console.o(.text)
    arch_printf_process                      0x07fc078d   Thumb Code    70  arch_console.o(.text)
    nvds_get_func                            0x07fc0801   Thumb Code   174  nvds.o(.text)
    nvds_init_func                           0x07fc08af   Thumb Code     4  nvds.o(.text)
    nvds_del_func                            0x07fc08b3   Thumb Code     4  nvds.o(.text)
    nvds_put_func                            0x07fc08b7   Thumb Code     4  nvds.o(.text)
    main                                     0x07fc0981   Thumb Code   268  arch_main.o(.text)
    crypto_init_func                         0x07fc0b85   Thumb Code     2  jump_table.o(.text)
    ba431_get_rand_func                      0x07fc0b87   Thumb Code    24  jump_table.o(.text)
    dia_rand_func                            0x07fc0b9f   Thumb Code     8  jump_table.o(.text)
    dia_srand_func                           0x07fc0ba7   Thumb Code     8  jump_table.o(.text)
    dbg_init_func_empty                      0x07fc0baf   Thumb Code     2  jump_table.o(.text)
    dbg_platform_reset_complete_func_empty   0x07fc0bb1   Thumb Code     2  jump_table.o(.text)
    smpm_ecdh_key_create_func_empty          0x07fc0bb3   Thumb Code     2  jump_table.o(.text)
    platform_reset_func                      0x07fc0bb5   Thumb Code    28  jump_table.o(.text)
    arch_disable_sleep                       0x07fc0bd5   Thumb Code    26  arch_sleep.o(.text)
    arch_set_extended_sleep                  0x07fc0bef   Thumb Code    46  arch_sleep.o(.text)
    arch_set_sleep_mode                      0x07fc0c1d   Thumb Code    24  arch_sleep.o(.text)
    arch_get_sleep_mode                      0x07fc0c35   Thumb Code    26  arch_sleep.o(.text)
    arch_restore_sleep_mode                  0x07fc0c4f   Thumb Code    72  arch_sleep.o(.text)
    arch_force_active_mode                   0x07fc0c97   Thumb Code    30  arch_sleep.o(.text)
    arch_ble_ext_wakeup_get                  0x07fc0cb5   Thumb Code     6  arch_sleep.o(.text)
    arch_ble_force_wakeup                    0x07fc0cbb   Thumb Code    46  arch_sleep.o(.text)
    init_pwr_and_clk_ble                     0x07fc0cf9   Thumb Code   196  arch_system.o(.text)
    set_sleep_delay                          0x07fc0dbd   Thumb Code    52  arch_system.o(.text)
    get_rc16m_count                          0x07fc0df1   Thumb Code    72  arch_system.o(.text)
    conditionally_run_radio_cals             0x07fc0e39   Thumb Code   100  arch_system.o(.text)
    lld_sleep_us_2_lpcycles_sel_func         0x07fc0e9d   Thumb Code     8  arch_system.o(.text)
    lld_sleep_lpcycles_2_us_sel_func         0x07fc0ea5   Thumb Code     8  arch_system.o(.text)
    check_sys_startup_period                 0x07fc0ead   Thumb Code    46  arch_system.o(.text)
    app_use_lower_clocks_check               0x07fc0edb   Thumb Code     4  arch_system.o(.text)
    lld_sleep_init_func                      0x07fc0edf   Thumb Code    26  arch_system.o(.text)
    set_xtal16m_trim_value                   0x07fc0ef9   Thumb Code    82  arch_system.o(.text)
    system_init                              0x07fc0f4b   Thumb Code   294  arch_system.o(.text)
    arch_rom_init                            0x07fc10bd   Thumb Code   132  arch_rom.o(.text)
    otp_hdr_get_bd_address                   0x07fc11a5   Thumb Code    12  otp_hdr.o(.text)
    syscntl_use_lowest_amba_clocks           0x07fc11b5   Thumb Code    22  syscntl.o(.text)
    syscntl_use_highest_amba_clocks          0x07fc11cb   Thumb Code    22  syscntl.o(.text)
    GPIO_init                                0x07fc11e1   Thumb Code   166  gpio.o(.text)
    GPIO_SetPinFunction                      0x07fc1287   Thumb Code    66  gpio.o(.text)
    GPIO_SetInactive                         0x07fc12c9   Thumb Code    60  gpio.o(.text)
    GPIO_SetActive                           0x07fc1305   Thumb Code    60  gpio.o(.text)
    GPIO_ConfigurePin                        0x07fc1341   Thumb Code    78  gpio.o(.text)
    GPIO_ResetIRQ                            0x07fc138f   Thumb Code    32  gpio.o(.text)
    GPIOn_Handler                            0x07fc13af   Thumb Code    54  gpio.o(.text)
    GPIO0_Handler                            0x07fc13e5   Thumb Code     4  gpio.o(.text)
    GPIO1_Handler                            0x07fc13e9   Thumb Code     4  gpio.o(.text)
    GPIO2_Handler                            0x07fc13ed   Thumb Code     4  gpio.o(.text)
    GPIO3_Handler                            0x07fc13f1   Thumb Code     4  gpio.o(.text)
    GPIO4_Handler                            0x07fc13f5   Thumb Code     4  gpio.o(.text)
    WKUP_QUADEC_Handler                      0x07fc142d   Thumb Code   104  wkupct_quadec.o(.text)
    adc_set_diff_input                       0x07fc14a1   Thumb Code    18  adc_58x.o(.text)
    adc_set_se_input                         0x07fc14b3   Thumb Code    18  adc_58x.o(.text)
    adc_init                                 0x07fc14c5   Thumb Code    28  adc_58x.o(.text)
    adc_get_sample                           0x07fc14e1   Thumb Code    30  adc_58x.o(.text)
    adc_get_vbat_sample                      0x07fc14ff   Thumb Code    84  adc_58x.o(.text)
    ADC_Handler                              0x07fc1553   Thumb Code    18  adc_58x.o(.text)
    I2C_Handler                              0x07fc160d   Thumb Code    26  i2c.o(.text)
    hw_otpc_disable                          0x07fc1645   Thumb Code    72  hw_otpc_58x.o(.text)
    hw_otpc_manual_read_on                   0x07fc168d   Thumb Code    38  hw_otpc_58x.o(.text)
    UART2_Handler                            0x07fc1741   Thumb Code    10  uart.o(.text)
    uart_enable                              0x07fc174b   Thumb Code    48  uart.o(.text)
    uart_baudrate_setf                       0x07fc177b   Thumb Code    50  uart.o(.text)
    uart_register_tx_cb                      0x07fc17ad   Thumb Code    22  uart.o(.text)
    uart_initialize                          0x07fc17c3   Thumb Code   162  uart.o(.text)
    uart_write_byte                          0x07fc1865   Thumb Code    14  uart.o(.text)
    uart_write_buffer                        0x07fc1873   Thumb Code    30  uart.o(.text)
    uart_send                                0x07fc1891   Thumb Code   112  uart.o(.text)
    uart_wait_tx_finish                      0x07fc1901   Thumb Code    12  uart.o(.text)
    trng_acquire                             0x07fc1a55   Thumb Code   292  trng.o(.text)
    init_rand_seed_from_trng                 0x07fc1b79   Thumb Code    18  trng.o(.text)
    lld_sleep_compensate_func                0x07fc1c15   Thumb Code   108  rwble.o(.text)
    power_up                                 0x07fc1c81   Thumb Code   210  rwble.o(.text)
    BLE_WAKEUP_LP_Handler                    0x07fc1d53   Thumb Code    92  rwble.o(.text)
    rwble_isr                                0x07fc1daf   Thumb Code   214  rwble.o(.text)
    patched_ble_regs_push                    0x07fc1eb5   Thumb Code    16  rwip.o(.text)
    patched_ble_regs_pop                     0x07fc1ec5   Thumb Code    16  rwip.o(.text)
    rwip_sleep                               0x07fc1ed5   Thumb Code   370  rwip.o(.text)
    rf_regs                                  0x07fc20ab   Thumb Code    62  rf_585.o(.text)
    rf_init_func                             0x07fc20e9   Thumb Code   120  rf_585.o(.text)
    rf_reinit_func                           0x07fc2161   Thumb Code    70  rf_585.o(.text)
    attm_svc_create_db_128                   0x07fc2201   Thumb Code   518  attm_db_128.o(.text)
    check_client_char_cfg                    0x07fc240d   Thumb Code    42  custom_common.o(.text)
    get_value_handle                         0x07fc2437   Thumb Code    76  custom_common.o(.text)
    get_cfg_handle                           0x07fc2483   Thumb Code    98  custom_common.o(.text)
    custs1_get_att_handle                    0x07fc24e5   Thumb Code    28  custom_common.o(.text)
    custs1_get_att_idx                       0x07fc2501   Thumb Code    38  custom_common.o(.text)
    diss_compute_cfg_flag                    0x07fc252d   Thumb Code    38  diss.o(.text)
    diss_prf_itf_get                         0x07fc2609   Thumb Code     6  diss.o(.text)
    diss_handle_to_value                     0x07fc260f   Thumb Code    48  diss.o(.text)
    diss_value_to_handle                     0x07fc263f   Thumb Code    52  diss.o(.text)
    diss_check_val_len                       0x07fc2673   Thumb Code    42  diss.o(.text)
    custs1_prf_itf_get                       0x07fc29f3   Thumb Code     4  custs1.o(.text)
    custs1_init_ccc_values                   0x07fc2acb   Thumb Code    58  custs1_task.o(.text)
    custs1_set_ccc_value                     0x07fc2b05   Thumb Code    62  custs1_task.o(.text)
    prf_init_func                            0x07fc3019   Thumb Code   108  prf.o(.text)
    prf_add_profile_func                     0x07fc3085   Thumb Code   126  prf.o(.text)
    prf_create_func                          0x07fc3103   Thumb Code    42  prf.o(.text)
    prf_cleanup_func                         0x07fc312d   Thumb Code    46  prf.o(.text)
    prf_env_get                              0x07fc315b   Thumb Code    42  prf.o(.text)
    prf_src_task_get                         0x07fc3185   Thumb Code    16  prf.o(.text)
    prf_dst_task_get                         0x07fc3195   Thumb Code    16  prf.o(.text)
    prf_get_id_from_task_func                0x07fc31a5   Thumb Code    48  prf.o(.text)
    prf_get_task_from_id_func                0x07fc31d5   Thumb Code    48  prf.o(.text)
    default_app_on_init                      0x07fc3225   Thumb Code    18  app_default_handlers.o(.text)
    default_app_on_connection                0x07fc3237   Thumb Code    28  app_default_handlers.o(.text)
    default_app_on_set_dev_config_complete   0x07fc3253   Thumb Code    16  app_default_handlers.o(.text)
    default_app_on_db_init_complete          0x07fc3263   Thumb Code     8  app_default_handlers.o(.text)
    default_app_on_get_dev_name              0x07fc326b   Thumb Code    18  app_default_handlers.o(.text)
    default_app_on_get_dev_appearance        0x07fc327d   Thumb Code     8  app_default_handlers.o(.text)
    default_app_on_get_dev_slv_pref_params   0x07fc3285   Thumb Code    18  app_default_handlers.o(.text)
    default_app_on_set_dev_info              0x07fc3297   Thumb Code    46  app_default_handlers.o(.text)
    default_app_update_params_request        0x07fc32c5   Thumb Code    12  app_default_handlers.o(.text)
    app_db_init_start                        0x07fc339d   Thumb Code    16  app.o(.text)
    app_db_init                              0x07fc33ad   Thumb Code     2  app.o(.text)
    app_prf_enable                           0x07fc33af   Thumb Code   136  app.o(.text)
    app_easy_gap_update_adv_data             0x07fc34b1   Thumb Code    68  app.o(.text)
    app_init                                 0x07fc3595   Thumb Code    72  app.o(.text)
    app_easy_gap_confirm                     0x07fc35dd   Thumb Code    36  app.o(.text)
    app_easy_gap_undirected_advertise_get_active 0x07fc3601   Thumb Code     2  app.o(.text)
    app_easy_gap_undirected_advertise_start  0x07fc3603   Thumb Code    26  app.o(.text)
    app_easy_gap_param_update_start          0x07fc361d   Thumb Code    24  app.o(.text)
    app_easy_gap_dev_configure               0x07fc3635   Thumb Code    18  app.o(.text)
    get_user_prf_srv_perm                    0x07fc3647   Thumb Code    34  app.o(.text)
    prf_init_srv_perm                        0x07fc3669   Thumb Code    30  app.o(.text)
    app_gap_process_handler                  0x07fc394b   Thumb Code    24  app_task.o(.text)
    app_dis_init                             0x07fc3975   Thumb Code     2  app_diss.o(.text)
    app_diss_create_db                       0x07fc3977   Thumb Code    54  app_diss.o(.text)
    app_diss_process_handler                 0x07fc3a25   Thumb Code    24  app_diss_task.o(.text)
    app_entry_point_handler                  0x07fc3a91   Thumb Code    58  app_entry_point.o(.text)
    app_std_process_event                    0x07fc3acb   Thumb Code    70  app_entry_point.o(.text)
    app_check_BLE_active                     0x07fc3b19   Thumb Code    36  app_msg_utils.o(.text)
    app_timer_api_process_handler            0x07fc3b7d   Thumb Code   172  app_easy_timer.o(.text)
    app_easy_timer                           0x07fc3c29   Thumb Code    62  app_easy_timer.o(.text)
    app_easy_timer_cancel                    0x07fc3c67   Thumb Code    70  app_easy_timer.o(.text)
    custs_get_func_callbacks                 0x07fc3d19   Thumb Code    34  app_customs.o(.text)
    app_custs1_create_db                     0x07fc3d3b   Thumb Code    54  app_customs.o(.text)
    app_custs1_process_handler               0x07fc3d79   Thumb Code    24  app_customs_task.o(.text)
    GPIO_reservations                        0x07fc3d91   Thumb Code   242  user_periph_setup.o(.text)
    set_pad_functions                        0x07fc3e83   Thumb Code   110  user_periph_setup.o(.text)
    periph_init                              0x07fc3ef1   Thumb Code    60  user_periph_setup.o(.text)
    app_adcval1_timer_cb_handler             0x07fc3f41   Thumb Code    70  user_custs1_impl.o(.text)
    user_svc1_ctrl_wr_ind_handler            0x07fc3f87   Thumb Code    54  user_custs1_impl.o(.text)
    user_svc1_led_wr_ind_handler             0x07fc3fbd   Thumb Code    48  user_custs1_impl.o(.text)
    user_svc1_long_val_cfg_ind_handler       0x07fc3fed   Thumb Code    70  user_custs1_impl.o(.text)
    user_svc1_long_val_wr_ind_handler        0x07fc4033   Thumb Code     2  user_custs1_impl.o(.text)
    user_svc1_adc_val_1_cfg_ind_handler      0x07fc4035   Thumb Code     2  user_custs1_impl.o(.text)
    user_svc1_button_cfg_ind_handler         0x07fc4037   Thumb Code     2  user_custs1_impl.o(.text)
    user_svc1_long_val_att_info_req_handler  0x07fc4039   Thumb Code    48  user_custs1_impl.o(.text)
    user_svc1_rest_att_info_req_handler      0x07fc4069   Thumb Code    50  user_custs1_impl.o(.text)
    user_svc3_read_non_db_val_handler        0x07fc409b   Thumb Code    78  user_custs1_impl.o(.text)
    user_app_init                            0x07fc4173   Thumb Code    54  user_peripheral.o(.text)
    user_app_adv_start                       0x07fc41a9   Thumb Code    36  user_peripheral.o(.text)
    user_app_connection                      0x07fc41cd   Thumb Code    80  user_peripheral.o(.text)
    user_app_adv_undirect_complete           0x07fc421d   Thumb Code     8  user_peripheral.o(.text)
    user_app_disconnect                      0x07fc4225   Thumb Code    30  user_peripheral.o(.text)
    user_catch_rest_hndl                     0x07fc4243   Thumb Code   196  user_peripheral.o(.text)
    PATCHED_atts_mtu_exc_req                 0x07fc43c5   Thumb Code    52  patch.o(.text)
    PATCHED_smpc_is_sec_mode_reached         0x07fc43f9   Thumb Code    66  patch.o(.text)
    PATCHED_smpc_check_key_distrib           0x07fc443b   Thumb Code    74  patch.o(.text)
    PATCHED_llcp_length_req_handler          0x07fc4485   Thumb Code   120  patch.o(.text)
    PATCHED_llcp_length_rsp_handler          0x07fc44fd   Thumb Code   136  patch.o(.text)
    JT_llc_le_length_effective_func          0x07fc4585   Thumb Code   182  patch.o(.text)
    PATCHED_smpc_construct_id_addr_info_pdu  0x07fc463b   Thumb Code    48  patch.o(.text)
    PATCHED_llc_util_gen_skdx                0x07fc466b   Thumb Code    20  patch.o(.text)
    PATCHED_llm_adv_report_set               0x07fc467f   Thumb Code   142  patch.o(.text)
    PATCHED_lld_evt_move_to_master           0x07fc470d   Thumb Code   360  patch.o(.text)
    PATCHED_gapm_adv_sanity                  0x07fc4875   Thumb Code   244  patch.o(.text)
    PATCHED_gapm_get_ad_type_flag            0x07fc4969   Thumb Code    38  patch.o(.text)
    PK_PointMult_func                        0x07fc498f   Thumb Code   246  patch.o(.text)
    llm_create_p256_key_func                 0x07fc4a85   Thumb Code    70  patch.o(.text)
    llm_p256_req_handler_func                0x07fc4acb   Thumb Code   290  patch.o(.text)
    PATCHED_hci_command_handler              0x07fc4c3b   Thumb Code   110  patch.o(.text)
    JT_l2cc_pdu_unpack_func                  0x07fc5029   Thumb Code   812  patch.o(.text)
    JT_l2cc_pdu_recv_ind_handler_func        0x07fc5355   Thumb Code    70  patch.o(.text)
    PATCHED_llc_ch_map_req_ind               0x07fc539b   Thumb Code   110  patch.o(.text)
    PATCHED_smpc_recv_public_key_exchange_pdu 0x07fc553b   Thumb Code   106  patch.o(.text)
    PATCHED_llm_con_req_ind                  0x07fc5637   Thumb Code   646  patch.o(.text)
    patch_func                               0x07fc58bd   Thumb Code    48  patch.o(.text)
    patch_global_vars_init                   0x07fc58ed   Thumb Code     2  patch.o(.text)
    DCoffsetCalibration_580                  0x07fc5a1d   Thumb Code   204  rf_calibration.o(.text)
    IffCalibration_580                       0x07fc5b05   Thumb Code    72  rf_calibration.o(.text)
    rf_calibration_580                       0x07fc5b4d   Thumb Code    80  rf_calibration.o(.text)
    rf_calibration_585                       0x07fc5b9d   Thumb Code    84  rf_calibration.o(.text)
    enable_rf_diag_irq                       0x07fc5bf1   Thumb Code   112  rf_calibration.o(.text)
    set_gauss_modgain                        0x07fc5c61   Thumb Code    54  rf_calibration.o(.text)
    set_rf_cal_cap                           0x07fc5cb5   Thumb Code    26  pll_vcocal_lut.o(.text)
    PATCHED_smpc_dhkey_calc_start            0x07fc5cd9   Thumb Code   136  smpc_util.o(.text)
    JT_llm_p256_start_func                   0x07fc5d61   Thumb Code    82  smpc_util.o(.text)
    __scatterload                            0x07fc5dc1   Thumb Code    28  init.o(.text)
    __scatterload_rt2                        0x07fc5dc1   Thumb Code     0  init.o(.text)
    __scatterload_copy                       0x07fc5de5   Thumb Code    14  handlers.o(i.__scatterload_copy)
    __scatterload_null                       0x07fc5df3   Thumb Code     2  handlers.o(i.__scatterload_null)
    __scatterload_zeroinit                   0x07fc5df5   Thumb Code    14  handlers.o(i.__scatterload_zeroinit)
    rom_func_addr_table_var                  0x07fc5e10   Data         388  jump_table.o(.constdata)
    rom_cfg_table_var                        0x07fc5f94   Data         188  jump_table.o(.constdata)
    gap_cfg_user_var_struct                  0x07fc6050   Data          90  arch_system.o(.constdata)
    diss_att_db                              0x07fc60b8   Data         228  diss.o(.constdata)
    diss_itf                                 0x07fc619c   Data          16  diss.o(.constdata)
    diss_default_state                       0x07fc61ac   Data          24  diss_task.o(.constdata)
    diss_default_handler                     0x07fc61c4   Data           8  diss_task.o(.constdata)
    custs1_itf                               0x07fc61cc   Data          16  custs1.o(.constdata)
    custs1_default_state                     0x07fc61dc   Data          72  custs1_task.o(.constdata)
    custs1_default_handler                   0x07fc6224   Data           8  custs1_task.o(.constdata)
    prf_funcs                                0x07fc6248   Data          24  app.o(.constdata)
    app_default_state                        0x07fc62e4   Data           8  app_task.o(.constdata)
    app_default_handler                      0x07fc62ec   Data           8  app_task.o(.constdata)
    app_process_handlers                     0x07fc62fc   Data          16  app_entry_point.o(.constdata)
    cust_prf_funcs                           0x07fc630c   Data          56  user_custs_config.o(.constdata)
    custs1_services                          0x07fc644c   Data           4  user_custs1_def.o(.constdata)
    custs1_services_size                     0x07fc6450   Data           1  user_custs1_def.o(.constdata)
    custs1_att_max_nb                        0x07fc6452   Data           2  user_custs1_def.o(.constdata)
    custs1_att_db                            0x07fc6454   Data         960  user_custs1_def.o(.constdata)
    LUT_CFG                                  0x07fc690c   Data          22  pll_vcocal_lut.o(.constdata)
    Region$$Table$$Base                      0x07fc69e4   Number         0  anon$$obj.o(Region$$Table)
    Region$$Table$$Limit                     0x07fc6a14   Number         0  anon$$obj.o(Region$$Table)
    startup_sleep_delay                      0x07fc6a14   Data           4  arch_system.o(.data)
    __initial_sp                             0x07fc7160   Data           0  startup_da14585_586.o(STACK)
    heap_mem_area_not_ret$$Base              0x07fc7160   Number         0  jump_table.o(heap_mem_area_not_ret)
    rwip_heap_non_ret                        0x07fc7160   Data        1036  jump_table.o(heap_mem_area_not_ret)
    Image$$RET_DATA_UNINIT$$Base             0x07fd4804   Number         0  anon$$obj.o ABSOLUTE
    sys_startup_flag                         0x07fd4818   Data           1  arch_system.o(retention_mem_area0)
    rcx_cal_in_progress                      0x07fd4819   Data           1  arch_system.o(retention_mem_area0)
    force_rf_cal                             0x07fd481a   Data           1  arch_system.o(retention_mem_area0)
    clk_freq_trim_reg_value                  0x07fd481c   Data           2  arch_system.o(retention_mem_area0)
    last_temp_count                          0x07fd481e   Data           2  arch_system.o(retention_mem_area0)
    arch_wkupct_deb_time                     0x07fd4820   Data           2  arch_system.o(retention_mem_area0)
    iq_trim_bias_ctrl1_reg                   0x07fd4822   Data           2  arch_system.o(retention_mem_area0)
    iq_trim_rf_mixer_ctrl1_reg               0x07fd4824   Data           2  arch_system.o(retention_mem_area0)
    last_temp_time                           0x07fd4828   Data           4  arch_system.o(retention_mem_area0)
    lp_clk_sel                               0x07fd482c   Data           4  arch_system.o(retention_mem_area0)
    rcx_freq                                 0x07fd4830   Data           4  arch_system.o(retention_mem_area0)
    rcx_period                               0x07fd4834   Data           4  arch_system.o(retention_mem_area0)
    dev_bdaddr                               0x07fd4838   Data           6  arch_system.o(retention_mem_area0)
    rcx_slot_duration                        0x07fd4840   Data           8  arch_system.o(retention_mem_area0)
    heap_log                                 0x07fd4848   Data           2  arch_rom.o(retention_mem_area0)
    GPIO_status                              0x07fd4850   Data           8  gpio.o(retention_mem_area0)
    GPIO                                     0x07fd4858   Data         160  gpio.o(retention_mem_area0)
    GPIOHandlerFunction                      0x07fd48f8   Data          20  gpio.o(retention_mem_area0)
    arch_rwble_last_event                    0x07fd4958   Data           1  rwble.o(retention_mem_area0)
    set_boost_low_vbat1v_overhead            0x07fd4959   Data           1  rwble.o(retention_mem_area0)
    twirq_set                                0x07fd495c   Data           4  rwble.o(retention_mem_area0)
    twirq_set_min                            0x07fd4960   Data           4  rwble.o(retention_mem_area0)
    twirq_set_max                            0x07fd4964   Data           4  rwble.o(retention_mem_area0)
    ble_finetim_corr                         0x07fd4968   Data           4  rwble.o(retention_mem_area0)
    sleep_lp_cycles                          0x07fd496c   Data           4  rwip.o(retention_mem_area0)
    retained_BLE_EM_BASE_REG                 0x07fd4970   Data           4  rwip.o(retention_mem_area0)
    slp_period_retained                      0x07fd4974   Data           4  rwip.o(retention_mem_area0)
    prf_env                                  0x07fd497c   Data         768  prf.o(retention_mem_area0)
    app_env                                  0x07fd4c94   Data          12  app.o(retention_mem_area0)
    app_prf_srv_perm                         0x07fd4ca0   Data          20  app.o(retention_mem_area0)
    device_info                              0x07fd4cb4   Data          36  app.o(retention_mem_area0)
    app_state                                0x07fd4cd8   Data           1  app_task.o(retention_mem_area0)
    timer_used                               0x07fd4d2e   Data           2  user_custs1_impl.o(retention_mem_area0)
    indication_counter                       0x07fd4d30   Data           2  user_custs1_impl.o(retention_mem_area0)
    non_db_val_counter                       0x07fd4d32   Data           2  user_custs1_impl.o(retention_mem_area0)
    app_connection_idx                       0x07fd4d34   Data           1  user_peripheral.o(retention_mem_area0)
    app_adv_data_update_timer_used           0x07fd4d35   Data           1  user_peripheral.o(retention_mem_area0)
    app_param_update_request_timer_used      0x07fd4d36   Data           1  user_peripheral.o(retention_mem_area0)
    mnf_data_index                           0x07fd4d37   Data           1  user_peripheral.o(retention_mem_area0)
    stored_adv_data_len                      0x07fd4d38   Data           1  user_peripheral.o(retention_mem_area0)
    stored_scan_rsp_data_len                 0x07fd4d39   Data           1  user_peripheral.o(retention_mem_area0)
    mnf_data                                 0x07fd4d3a   Data           6  user_peripheral.o(retention_mem_area0)
    stored_adv_data                          0x07fd4d40   Data          31  user_peripheral.o(retention_mem_area0)
    stored_scan_rsp_data                     0x07fd4d5f   Data          31  user_peripheral.o(retention_mem_area0)
    calcap_minmax                            0x07fd4d7e   Data           1  pll_vcocal_lut.o(retention_mem_area0)
    vcocal_ctrl_reg_val                      0x07fd4d80   Data           2  pll_vcocal_lut.o(retention_mem_area0)
    vco_calcap_ranges                        0x07fd4d82   Data          16  pll_vcocal_lut.o(retention_mem_area0)
    rf_cal_cap                               0x07fd4d92   Data          20  pll_vcocal_lut.o(retention_mem_area0)
    rwip_heap_db_ret                         0x07fd4da8   Data        1036  jump_table.o(heap_db_area)
    rwip_heap_env_ret                        0x07fd51b4   Data         628  jump_table.o(heap_env_area)
    rwip_heap_msg_ret                        0x07fd5428   Data        1404  jump_table.o(heap_msg_area)
    ble_wakeup_executed                      0x07fd7600   Data           0  da14585_symbols.txt ABSOLUTE
    rf_in_sleep                              0x07fd7601   Data           0  da14585_symbols.txt ABSOLUTE
    custom_preinit                           0x07fd7604   Data           0  da14585_symbols.txt ABSOLUTE
    custom_postinit                          0x07fd7608   Data           0  da14585_symbols.txt ABSOLUTE
    custom_appinit                           0x07fd760c   Data           0  da14585_symbols.txt ABSOLUTE
    custom_preloop                           0x07fd7610   Data           0  da14585_symbols.txt ABSOLUTE
    custom_preschedule                       0x07fd7614   Data           0  da14585_symbols.txt ABSOLUTE
    custom_postschedule                      0x07fd7618   Data           0  da14585_symbols.txt ABSOLUTE
    custom_postschedule_async                0x07fd761c   Data           0  da14585_symbols.txt ABSOLUTE
    custom_presleepcheck                     0x07fd7620   Data           0  da14585_symbols.txt ABSOLUTE
    custom_appsleepset                       0x07fd7624   Data           0  da14585_symbols.txt ABSOLUTE
    custom_postsleepcheck                    0x07fd7628   Data           0  da14585_symbols.txt ABSOLUTE
    custom_presleepenter                     0x07fd762c   Data           0  da14585_symbols.txt ABSOLUTE
    custom_postsleepexit                     0x07fd7630   Data           0  da14585_symbols.txt ABSOLUTE
    custom_prewakeup                         0x07fd7634   Data           0  da14585_symbols.txt ABSOLUTE
    custom_postwakeup                        0x07fd7638   Data           0  da14585_symbols.txt ABSOLUTE
    custom_preidlecheck                      0x07fd763c   Data           0  da14585_symbols.txt ABSOLUTE
    custom_pti_set                           0x07fd7640   Data           0  da14585_symbols.txt ABSOLUTE
    REG_BLE_EM_TX_BUFFER_SIZE                0x07fd7644   Data           0  da14585_symbols.txt ABSOLUTE
    REG_BLE_EM_RX_BUFFER_SIZE                0x07fd7648   Data           0  da14585_symbols.txt ABSOLUTE
    _ble_base                                0x07fd764c   Data           0  da14585_symbols.txt ABSOLUTE
    gap_cfg_user                             0x07fd7650   Data           0  da14585_symbols.txt ABSOLUTE
    rom_func_addr_table                      0x07fd7654   Data           0  da14585_symbols.txt ABSOLUTE
    rom_cfg_table                            0x07fd7658   Data           0  da14585_symbols.txt ABSOLUTE
    BLE_TX_DESC_DATA_USER                    0x07fd765c   Data           0  da14585_symbols.txt ABSOLUTE
    BLE_TX_DESC_CNTL_USER                    0x07fd7660   Data           0  da14585_symbols.txt ABSOLUTE
    LLM_LE_ADV_DUMMY_IDX                     0x07fd7664   Data           0  da14585_symbols.txt ABSOLUTE
    LLM_LE_SCAN_CON_REQ_ADV_DIR_IDX          0x07fd7668   Data           0  da14585_symbols.txt ABSOLUTE
    LLM_LE_SCAN_RSP_IDX                      0x07fd766c   Data           0  da14585_symbols.txt ABSOLUTE
    LLM_LE_ADV_IDX                           0x07fd7670   Data           0  da14585_symbols.txt ABSOLUTE
    length_exchange_needed                   0x07fd7674   Data           0  da14585_symbols.txt ABSOLUTE
    enh_con_cmp_cnt                          0x07fd7678   Data           0  da14585_symbols.txt ABSOLUTE
    rx_pkt_cnt                               0x07fd7680   Data           0  da14585_symbols.txt ABSOLUTE
    rx_pkt_cnt_bad                           0x07fd7684   Data           0  da14585_symbols.txt ABSOLUTE
    rx_pkt_cnt_bad_adv                       0x07fd7688   Data           0  da14585_symbols.txt ABSOLUTE
    rx_pkt_cnt_bad_scn                       0x07fd768c   Data           0  da14585_symbols.txt ABSOLUTE
    rx_pkt_cnt_bad_oth                       0x07fd7690   Data           0  da14585_symbols.txt ABSOLUTE
    rx_pkt_cnt_bad_wo_sync_err               0x07fd7694   Data           0  da14585_symbols.txt ABSOLUTE
    rx_pkt_cnt_bad_con                       0x07fd7698   Data           0  da14585_symbols.txt ABSOLUTE
    connect_req_cnt                          0x07fd769c   Data           0  da14585_symbols.txt ABSOLUTE
    last_status                              0x07fd76a0   Data           0  da14585_symbols.txt ABSOLUTE
    llc_state                                0x07fd76a4   Data           0  da14585_symbols.txt ABSOLUTE
    lld_sleep_env                            0x07fd76ac   Data           0  da14585_symbols.txt ABSOLUTE
    lld_wlcoex_enable                        0x07fd76b0   Data           0  da14585_symbols.txt ABSOLUTE
    ble_duplicate_filter_max                 0x07fd76b4   Data           0  da14585_symbols.txt ABSOLUTE
    ble_duplicate_filter_found               0x07fd76b5   Data           0  da14585_symbols.txt ABSOLUTE
    alter_conn_adv_all_cnt                   0x07fd76b8   Data           0  da14585_symbols.txt ABSOLUTE
    alter_conn_adv_dir_cnt                   0x07fd76bc   Data           0  da14585_symbols.txt ABSOLUTE
    alter_conn_adv_cnt                       0x07fd76c0   Data           0  da14585_symbols.txt ABSOLUTE
    create_conn_cnt                          0x07fd76c4   Data           0  da14585_symbols.txt ABSOLUTE
    alter_conn_cnt                           0x07fd76c8   Data           0  da14585_symbols.txt ABSOLUTE
    alter_conn_restart_cnt                   0x07fd76cc   Data           0  da14585_symbols.txt ABSOLUTE
    alter_conn_peer_addr                     0x07fd76d0   Data           0  da14585_symbols.txt ABSOLUTE
    alter_conn_local_addr                    0x07fd76d6   Data           0  da14585_symbols.txt ABSOLUTE
    set_adv_data_discard_old                 0x07fd76dc   Data           0  da14585_symbols.txt ABSOLUTE
    llm_resolving_list_max                   0x07fd76dd   Data           0  da14585_symbols.txt ABSOLUTE
    llm_bt_env                               0x07fd76de   Data           0  da14585_symbols.txt ABSOLUTE
    init_tx_cnt_cntl_cnt1                    0x07fd76e8   Data           0  da14585_symbols.txt ABSOLUTE
    init_tx_cnt_cntl_cnt                     0x07fd76ec   Data           0  da14585_symbols.txt ABSOLUTE
    tx_cnt_cntl_cnt                          0x07fd76f0   Data           0  da14585_symbols.txt ABSOLUTE
    llm_state                                0x07fd76f4   Data           0  da14585_symbols.txt ABSOLUTE
    gtl_state                                0x07fd76f8   Data           0  da14585_symbols.txt ABSOLUTE
    use_h4tl                                 0x07fd76f9   Data           0  da14585_symbols.txt ABSOLUTE
    hci_cmd_desc_root_tab                    0x07fd76fc   Data           0  da14585_symbols.txt ABSOLUTE
    gattc_state                              0x07fd772c   Data           0  da14585_symbols.txt ABSOLUTE
    gattm_state                              0x07fd7734   Data           0  da14585_symbols.txt ABSOLUTE
    l2cc_state                               0x07fd7735   Data           0  da14585_symbols.txt ABSOLUTE
    l2cm_env                                 0x07fd773e   Data           0  da14585_symbols.txt ABSOLUTE
    gapc_state                               0x07fd7744   Data           0  da14585_symbols.txt ABSOLUTE
    gapm_state                               0x07fd774c   Data           0  da14585_symbols.txt ABSOLUTE
    ecdh_key_creation_in_progress            0x07fd7750   Data           0  da14585_symbols.txt ABSOLUTE
    ke_free_bad                              0x07fd7754   Data           0  da14585_symbols.txt ABSOLUTE
    rwip_env                                 0x07fd7758   Data           0  da14585_symbols.txt ABSOLUTE
    ble_reg_save                             0x07fd7764   Data           0  da14585_symbols.txt ABSOLUTE
    sleep_env                                0x07fd77b4   Data           0  da14585_symbols.txt ABSOLUTE
    uart_env                                 0x07fd77b8   Data           0  da14585_symbols.txt ABSOLUTE
    ke_mem_heaps_used                        0x07fd77dc   Data           0  da14585_symbols.txt ABSOLUTE
    co_buf_env                               0x07fd77e0   Data           0  da14585_symbols.txt ABSOLUTE
    llc_env                                  0x07fd7918   Data           0  da14585_symbols.txt ABSOLUTE
    lld_evt_env                              0x07fd7938   Data           0  da14585_symbols.txt ABSOLUTE
    llm_le_env                               0x07fd7964   Data           0  da14585_symbols.txt ABSOLUTE
    llm_resolving_list                       0x07fd7a60   Data           0  da14585_symbols.txt ABSOLUTE
    ea_env                                   0x07fd7cb8   Data           0  da14585_symbols.txt ABSOLUTE
    gtl_env                                  0x07fd7cf8   Data           0  da14585_symbols.txt ABSOLUTE
    hci_env                                  0x07fd7d40   Data           0  da14585_symbols.txt ABSOLUTE
    h4tl_env                                 0x07fd7d50   Data           0  da14585_symbols.txt ABSOLUTE
    gattc_env                                0x07fd7d68   Data           0  da14585_symbols.txt ABSOLUTE
    gattm_env                                0x07fd7d88   Data           0  da14585_symbols.txt ABSOLUTE
    l2cc_env                                 0x07fd7dac   Data           0  da14585_symbols.txt ABSOLUTE
    ecdh_key                                 0x07fd7dcc   Data           0  da14585_symbols.txt ABSOLUTE
    gapc_env                                 0x07fd7e2c   Data           0  da14585_symbols.txt ABSOLUTE
    gapm_env                                 0x07fd7e4c   Data           0  da14585_symbols.txt ABSOLUTE
    ke_env                                   0x07fd7e78   Data           0  da14585_symbols.txt ABSOLUTE
    rwip_rf                                  0x07fd7fb4   Data           0  da14585_symbols.txt ABSOLUTE



==============================================================================

Memory Map of the image

  Image Entry point : 0x07fc0511

  Load Region LR_IROM1 (Base: 0x07fc0000, Size: 0x000000a0, Max: 0x000000c0, ABSOLUTE)

    Execution Region ER_IROM1 (Exec base: 0x07fc0000, Load base: 0x07fc0000, Size: 0x000000a0, Max: 0x000000c0, ABSOLUTE)

    Exec Addr    Load Addr    Size         Type   Attr      Idx    E Section Name        Object

    0x07fc0000   0x07fc0000   0x000000a0   Data   RO          275    RESET               startup_da14585_586.o



  Load Region LR_IROM2 (Base: 0x07fc00c0, Size: 0x00000000, Max: 0x00000050, ABSOLUTE)

    Execution Region ER_IROM2 (Exec base: 0x07fc00c0, Load base: 0x07fc00c0, Size: 0x00000050, Max: 0x00000050, ABSOLUTE)

    Exec Addr    Load Addr    Size         Type   Attr      Idx    E Section Name        Object

    0x07fc00c0        -       0x00000050   Zero   RW            1    ER_IROM2.bss        anon$$obj.o



  Load Region LR_TRNG_ZI (Base: 0x07fc0110, Size: 0x00000000, Max: 0x00000400, ABSOLUTE)

    Execution Region ER_TRNG_ZI (Exec base: 0x07fc0110, Load base: 0x07fc0110, Size: 0x00000400, Max: 0x00000400, ABSOLUTE)

    Exec Addr    Load Addr    Size         Type   Attr      Idx    E Section Name        Object

    0x07fc0110        -       0x00000400   Zero   RW         1968    trng_buffer_area_zi  trng.o



  Load Region LR_IROM3 (Base: 0x07fc0510, Size: 0x00006508, Max: 0x000142f4, ABSOLUTE)

    Execution Region ER_IROM3 (Exec base: 0x07fc0510, Load base: 0x07fc0510, Size: 0x00006508, Max: 0x000142f4, ABSOLUTE)

    Exec Addr    Load Addr    Size         Type   Attr      Idx    E Section Name        Object

    0x07fc0510   0x07fc0510   0x00000000   Code   RO         3292  * .ARM.Collect$$$$00000000  mc_p.l(entry.o)
    0x07fc0510   0x07fc0510   0x00000004   Code   RO         3293    .ARM.Collect$$$$00000001  mc_p.l(entry2.o)
    0x07fc0514   0x07fc0514   0x00000004   Code   RO         3296    .ARM.Collect$$$$00000004  mc_p.l(entry5.o)
    0x07fc0518   0x07fc0518   0x00000000   Code   RO         3298    .ARM.Collect$$$$00000008  mc_p.l(entry7b.o)
    0x07fc0518   0x07fc0518   0x00000000   Code   RO         3300    .ARM.Collect$$$$0000000A  mc_p.l(entry8b.o)
    0x07fc0518   0x07fc0518   0x00000008   Code   RO         3301    .ARM.Collect$$$$0000000B  mc_p.l(entry9a.o)
    0x07fc0520   0x07fc0520   0x00000004   Code   RO         3308    .ARM.Collect$$$$0000000E  mc_p.l(entry12b.o)
    0x07fc0524   0x07fc0524   0x00000000   Code   RO         3303    .ARM.Collect$$$$0000000F  mc_p.l(entry10a.o)
    0x07fc0524   0x07fc0524   0x00000000   Code   RO         3305    .ARM.Collect$$$$00000011  mc_p.l(entry11a.o)
    0x07fc0524   0x07fc0524   0x00000004   Code   RO         3294    .ARM.Collect$$$$00002712  mc_p.l(entry2.o)
    0x07fc0528   0x07fc0528   0x00000048   Code   RO            4    .text               system_da14585_586.o
    0x07fc0570   0x07fc0570   0x00000050   Code   RO          276    .text               startup_da14585_586.o
    0x07fc05c0   0x07fc05c0   0x00000068   Code   RO          281    .text               hardfault_handler.o
    0x07fc0628   0x07fc0628   0x0000009c   Code   RO          330    .text               nmi_handler.o
    0x07fc06c4   0x07fc06c4   0x0000013c   Code   RO          348    .text               arch_console.o
    0x07fc0800   0x07fc0800   0x000000c8   Code   RO          414    .text               nvds.o
    0x07fc08c8   0x07fc08c8   0x000002bc   Code   RO          435    .text               arch_main.o
    0x07fc0b84   0x07fc0b84   0x00000050   Code   RO          600    .text               jump_table.o
    0x07fc0bd4   0x07fc0bd4   0x00000124   Code   RO          661    .text               arch_sleep.o
    0x07fc0cf8   0x07fc0cf8   0x000003c4   Code   RO          702    .text               arch_system.o
    0x07fc10bc   0x07fc10bc   0x000000e8   Code   RO          819    .text               arch_rom.o
    0x07fc11a4   0x07fc11a4   0x00000010   Code   RO          863    .text               otp_hdr.o
    0x07fc11b4   0x07fc11b4   0x0000002c   Code   RO          878    .text               syscntl.o
    0x07fc11e0   0x07fc11e0   0x0000024c   Code   RO          899    .text               gpio.o
    0x07fc142c   0x07fc142c   0x00000074   Code   RO          998    .text               wkupct_quadec.o
    0x07fc14a0   0x07fc14a0   0x0000016c   Code   RO         1113    .text               adc_58x.o
    0x07fc160c   0x07fc160c   0x00000038   Code   RO         1571    .text               i2c.o
    0x07fc1644   0x07fc1644   0x00000078   Code   RO         1771    .text               hw_otpc_58x.o
    0x07fc16bc   0x07fc16bc   0x00000398   Code   RO         1903    .text               uart.o
    0x07fc1a54   0x07fc1a54   0x000001c0   Code   RO         1966    .text               trng.o
    0x07fc1c14   0x07fc1c14   0x000002a0   Code   RO         1990    .text               rwble.o
    0x07fc1eb4   0x07fc1eb4   0x000001d0   Code   RO         2042    .text               rwip.o
    0x07fc2084   0x07fc2084   0x0000017c   Code   RO         2070    .text               rf_585.o
    0x07fc2200   0x07fc2200   0x0000020c   Code   RO         2128    .text               attm_db_128.o
    0x07fc240c   0x07fc240c   0x00000120   Code   RO         2193    .text               custom_common.o
    0x07fc252c   0x07fc252c   0x0000017c   Code   RO         2217    .text               diss.o
    0x07fc26a8   0x07fc26a8   0x000001d8   Code   RO         2286    .text               diss_task.o
    0x07fc2880   0x07fc2880   0x00000194   Code   RO         2353    .text               custs1.o
    0x07fc2a14   0x07fc2a14   0x00000604   Code   RO         2378    .text               custs1_task.o
    0x07fc3018   0x07fc3018   0x0000020c   Code   RO         2452    .text               prf.o
    0x07fc3224   0x07fc3224   0x000000b4   Code   RO         2483    .text               app_default_handlers.o
    0x07fc32d8   0x07fc32d8   0x00000418   Code   RO         2545    .text               app.o
    0x07fc36f0   0x07fc36f0   0x00000284   Code   RO         2734    .text               app_task.o
    0x07fc3974   0x07fc3974   0x0000003c   Code   RO         2819    .text               app_diss.o
    0x07fc39b0   0x07fc39b0   0x000000e0   Code   RO         2831    .text               app_diss_task.o
    0x07fc3a90   0x07fc3a90   0x00000088   Code   RO         2862    .text               app_entry_point.o
    0x07fc3b18   0x07fc3b18   0x00000028   Code   RO         2892    .text               app_msg_utils.o
    0x07fc3b40   0x07fc3b40   0x00000002   Code   RO         2970    .text               app_easy_timer.o
    0x07fc3b42   0x07fc3b42   0x00000002   Code   RO         2971    .text               app_easy_timer.o
    0x07fc3b44   0x07fc3b44   0x000001d4   Code   RO         2972    .text               app_easy_timer.o
    0x07fc3d18   0x07fc3d18   0x00000060   Code   RO         3006    .text               app_customs.o
    0x07fc3d78   0x07fc3d78   0x00000018   Code   RO         3028    .text               app_customs_task.o
    0x07fc3d90   0x07fc3d90   0x000001b0   Code   RO         3140    .text               user_periph_setup.o
    0x07fc3f40   0x07fc3f40   0x000001b8   Code   RO         3161    .text               user_custs1_impl.o
    0x07fc40f8   0x07fc40f8   0x000002cc   Code   RO         3217    .text               user_peripheral.o
    0x07fc43c4   0x07fc43c4   0x0000155c   Code   RO         3247    .text               da14585_586.lib(patch.o)
    0x07fc5920   0x07fc5920   0x000000fc   Code   RO         3250    .text               da14585_586.lib(rf_calibration.o)
    0x07fc5a1c   0x07fc5a1c   0x000000e8   Code   RO         3251    .text               da14585_586.lib(rf_calibration.o)
    0x07fc5b04   0x07fc5b04   0x000001b0   Code   RO         3252    .text               da14585_586.lib(rf_calibration.o)
    0x07fc5cb4   0x07fc5cb4   0x00000024   Code   RO         3271    .text               da14585_586.lib(pll_vcocal_lut.o)
    0x07fc5cd8   0x07fc5cd8   0x000000e8   Code   RO         3290    .text               da14585_586.lib(smpc_util.o)
    0x07fc5dc0   0x07fc5dc0   0x00000024   Code   RO         3309    .text               mc_p.l(init.o)
    0x07fc5de4   0x07fc5de4   0x0000000e   Code   RO         3313    i.__scatterload_copy  mc_p.l(handlers.o)
    0x07fc5df2   0x07fc5df2   0x00000002   Code   RO         3314    i.__scatterload_null  mc_p.l(handlers.o)
    0x07fc5df4   0x07fc5df4   0x0000000e   Code   RO         3315    i.__scatterload_zeroinit  mc_p.l(handlers.o)
    0x07fc5e02   0x07fc5e02   0x0000000e   Data   RO          415    .constdata          nvds.o
    0x07fc5e10   0x07fc5e10   0x00000184   Data   RO          601    .constdata          jump_table.o
    0x07fc5f94   0x07fc5f94   0x000000bc   Data   RO          602    .constdata          jump_table.o
    0x07fc6050   0x07fc6050   0x0000005a   Data   RO          708    .constdata          arch_system.o
    0x07fc60aa   0x07fc60aa   0x00000008   Data   RO          912    .constdata          gpio.o
    0x07fc60b2   0x07fc60b2   0x00000002   PAD
    0x07fc60b4   0x07fc60b4   0x00000004   Data   RO         1120    .constdata          adc_58x.o
    0x07fc60b8   0x07fc60b8   0x000000f4   Data   RO         2218    .constdata          diss.o
    0x07fc61ac   0x07fc61ac   0x00000018   Data   RO         2287    .constdata          diss_task.o
    0x07fc61c4   0x07fc61c4   0x00000008   Data   RO         2288    .constdata          diss_task.o
    0x07fc61cc   0x07fc61cc   0x00000010   Data   RO         2354    .constdata          custs1.o
    0x07fc61dc   0x07fc61dc   0x00000048   Data   RO         2379    .constdata          custs1_task.o
    0x07fc6224   0x07fc6224   0x00000008   Data   RO         2380    .constdata          custs1_task.o
    0x07fc622c   0x07fc622c   0x00000050   Data   RO         2570    .constdata          app.o
    0x07fc627c   0x07fc627c   0x00000068   Data   RO         2736    .constdata          app_task.o
    0x07fc62e4   0x07fc62e4   0x00000008   Data   RO         2737    .constdata          app_task.o
    0x07fc62ec   0x07fc62ec   0x00000008   Data   RO         2738    .constdata          app_task.o
    0x07fc62f4   0x07fc62f4   0x00000008   Data   RO         2832    .constdata          app_diss_task.o
    0x07fc62fc   0x07fc62fc   0x00000010   Data   RO         2863    .constdata          app_entry_point.o
    0x07fc630c   0x07fc630c   0x00000038   Data   RO         3094    .constdata          user_custs_config.o
    0x07fc6344   0x07fc6344   0x00000010   Data   RO         3107    .constdata          user_custs1_def.o
    0x07fc6354   0x07fc6354   0x00000010   Data   RO         3108    .constdata          user_custs1_def.o
    0x07fc6364   0x07fc6364   0x00000010   Data   RO         3109    .constdata          user_custs1_def.o
    0x07fc6374   0x07fc6374   0x00000010   Data   RO         3110    .constdata          user_custs1_def.o
    0x07fc6384   0x07fc6384   0x00000010   Data   RO         3111    .constdata          user_custs1_def.o
    0x07fc6394   0x07fc6394   0x00000010   Data   RO         3112    .constdata          user_custs1_def.o
    0x07fc63a4   0x07fc63a4   0x00000010   Data   RO         3113    .constdata          user_custs1_def.o
    0x07fc63b4   0x07fc63b4   0x00000010   Data   RO         3114    .constdata          user_custs1_def.o
    0x07fc63c4   0x07fc63c4   0x00000010   Data   RO         3115    .constdata          user_custs1_def.o
    0x07fc63d4   0x07fc63d4   0x00000010   Data   RO         3116    .constdata          user_custs1_def.o
    0x07fc63e4   0x07fc63e4   0x00000010   Data   RO         3117    .constdata          user_custs1_def.o
    0x07fc63f4   0x07fc63f4   0x00000010   Data   RO         3118    .constdata          user_custs1_def.o
    0x07fc6404   0x07fc6404   0x00000010   Data   RO         3119    .constdata          user_custs1_def.o
    0x07fc6414   0x07fc6414   0x00000010   Data   RO         3120    .constdata          user_custs1_def.o
    0x07fc6424   0x07fc6424   0x00000010   Data   RO         3121    .constdata          user_custs1_def.o
    0x07fc6434   0x07fc6434   0x00000010   Data   RO         3122    .constdata          user_custs1_def.o
    0x07fc6444   0x07fc6444   0x00000002   Data   RO         3123    .constdata          user_custs1_def.o
    0x07fc6446   0x07fc6446   0x00000002   Data   RO         3124    .constdata          user_custs1_def.o
    0x07fc6448   0x07fc6448   0x00000002   Data   RO         3125    .constdata          user_custs1_def.o
    0x07fc644a   0x07fc644a   0x00000002   Data   RO         3126    .constdata          user_custs1_def.o
    0x07fc644c   0x07fc644c   0x00000004   Data   RO         3127    .constdata          user_custs1_def.o
    0x07fc6450   0x07fc6450   0x00000001   Data   RO         3128    .constdata          user_custs1_def.o
    0x07fc6451   0x07fc6451   0x00000001   PAD
    0x07fc6452   0x07fc6452   0x00000002   Data   RO         3129    .constdata          user_custs1_def.o
    0x07fc6454   0x07fc6454   0x000003c0   Data   RO         3130    .constdata          user_custs1_def.o
    0x07fc6814   0x07fc6814   0x00000018   Data   RO         3141    .constdata          user_periph_setup.o
    0x07fc682c   0x07fc682c   0x000000e0   Data   RO         3248    .constdata          da14585_586.lib(patch.o)
    0x07fc690c   0x07fc690c   0x00000016   Data   RO         3272    .constdata          da14585_586.lib(pll_vcocal_lut.o)
    0x07fc6922   0x07fc6922   0x00000002   PAD
    0x07fc6924   0x07fc6924   0x000000be   Data   RO         3131    .conststring        user_custs1_def.o
    0x07fc69e2   0x07fc69e2   0x00000002   PAD
    0x07fc69e4   0x07fc69e4   0x00000030   Data   RO         3311    Region$$Table       anon$$obj.o
    0x07fc6a14   0x07fc6a14   0x00000004   Data   RW          709    .data               arch_system.o


    Execution Region ER_PRODTEST (Exec base: 0x07fc6a18, Load base: 0x07fc6a18, Size: 0x00000000, Max: 0xffffffff, ABSOLUTE, UNINIT)

    **** No section assigned to this execution region ****


    Execution Region ER_ZI (Exec base: 0x07fc6a18, Load base: 0x07fc6a18, Size: 0x00000748, Max: 0xffffffff, ABSOLUTE)

    Exec Addr    Load Addr    Size         Type   Attr      Idx    E Section Name        Object

    0x07fc6a18        -       0x00000100   Zero   RW          353    .bss                arch_console.o
    0x07fc6b18        -       0x00000030   Zero   RW         1572    .bss                i2c.o
    0x07fc6b48        -       0x00000010   Zero   RW         1967    .bss                trng.o
    0x07fc6b58        -       0x00000001   Zero   RW         1991    .bss                rwble.o
    0x07fc6b59   0x07fc6a18   0x00000007   PAD
    0x07fc6b60        -       0x00000600   Zero   RW          273    STACK               startup_da14585_586.o


    Execution Region ER_NZI (Exec base: 0x07fc7160, Load base: 0x07fc6a18, Size: 0x0000040c, Max: 0xffffffff, ABSOLUTE, UNINIT)

    Exec Addr    Load Addr    Size         Type   Attr      Idx    E Section Name        Object

    0x07fc7160        -       0x0000040c   Zero   RW          605    heap_mem_area_not_ret  jump_table.o



  Load Region LR_RETAINED_RAM0 (Base: 0x07fd4804, Size: 0x00000000, Max: 0x000013fc, ABSOLUTE)

    Execution Region RET_DATA_UNINIT (Exec base: 0x07fd4804, Load base: 0x07fd4804, Size: 0x00000000, Max: 0x00000000, ABSOLUTE, UNINIT)

    **** No section assigned to this execution region ****


    Execution Region RET_DATA (Exec base: 0x07fd4804, Load base: 0x07fd4804, Size: 0x000005a4, Max: 0x00000800, ABSOLUTE)

    Exec Addr    Load Addr    Size         Type   Attr      Idx    E Section Name        Object

    0x07fd4804        -       0x00000008   Zero   RW          354    retention_mem_area0  arch_console.o
    0x07fd480c        -       0x00000008   Zero   RW          437    retention_mem_area0  arch_main.o
    0x07fd4814        -       0x00000004   Zero   RW          666    retention_mem_area0  arch_sleep.o
    0x07fd4818        -       0x00000030   Zero   RW          710    retention_mem_area0  arch_system.o
    0x07fd4848        -       0x00000002   Zero   RW          820    retention_mem_area0  arch_rom.o
    0x07fd484a   0x07fd4804   0x00000006   PAD
    0x07fd4850        -       0x000000bc   Zero   RW          913    retention_mem_area0  gpio.o
    0x07fd490c        -       0x00000008   Zero   RW         1008    retention_mem_area0  wkupct_quadec.o
    0x07fd4914        -       0x00000004   Zero   RW         1121    retention_mem_area0  adc_58x.o
    0x07fd4918        -       0x00000040   Zero   RW         1912    retention_mem_area0  uart.o
    0x07fd4958        -       0x00000014   Zero   RW         1992    retention_mem_area0  rwble.o
    0x07fd496c        -       0x00000008   Zero   RW         2043    retention_mem_area0  rwip.o
    0x07fd4974        -       0x00000004   Zero   RW         2044    retention_mem_area0  rwip.o
    0x07fd4978        -       0x00000001   Zero   RW         2074    retention_mem_area0  rf_585.o
    0x07fd4979   0x07fd4804   0x00000003   PAD
    0x07fd497c        -       0x00000300   Zero   RW         2454    retention_mem_area0  prf.o
    0x07fd4c7c        -       0x0000005c   Zero   RW         2574    retention_mem_area0  app.o
    0x07fd4cd8        -       0x00000001   Zero   RW         2739    retention_mem_area0  app_task.o
    0x07fd4cd9   0x07fd4804   0x00000003   PAD
    0x07fd4cdc        -       0x00000050   Zero   RW         2975    retention_mem_area0  app_easy_timer.o
    0x07fd4d2c        -       0x00000008   Zero   RW         3167    retention_mem_area0  user_custs1_impl.o
    0x07fd4d34        -       0x0000004a   Zero   RW         3219    retention_mem_area0  user_peripheral.o
    0x07fd4d7e        -       0x00000028   Zero   RW         3273    retention_mem_area0  da14585_586.lib(pll_vcocal_lut.o)


    Execution Region RET_HEAP (Exec base: 0x07fd4da8, Load base: 0x07fd4804, Size: 0x00000bfc, Max: 0x00000bfc, ABSOLUTE, UNINIT)

    Exec Addr    Load Addr    Size         Type   Attr      Idx    E Section Name        Object

    0x07fd4da8        -       0x0000040c   Zero   RW          603    heap_db_area        jump_table.o
    0x07fd51b4        -       0x00000274   Zero   RW          604    heap_env_area       jump_table.o
    0x07fd5428        -       0x0000057c   Zero   RW          606    heap_msg_area       jump_table.o



  Load Region LR_FREE_AREA (Base: 0x07fd7278, Size: 0x00000000, Max: 0x00000388, ABSOLUTE)

    Execution Region ER_FREE_AREA (Exec base: 0x07fd7278, Load base: 0x07fd7278, Size: 0x00000388, Max: 0x00000388, ABSOLUTE)

    Exec Addr    Load Addr    Size         Type   Attr      Idx    E Section Name        Object

    0x07fd7278        -       0x00000388   Zero   RW            2    ER_FREE_AREA.bss    anon$$obj.o


==============================================================================

Image component sizes


      Code (inc. data)   RO Data    RW Data    ZI Data      Debug   Object Name

       364         26          4          0          4      13339   adc_58x.o
      1048         70         80          0         92      21317   app.o
        96          8          0          0          0       1968   app_customs.o
        24          0          0          0          0       1557   app_customs_task.o
       180          8          0          0          0       3738   app_default_handlers.o
        60          4          0          0          0       1502   app_diss.o
       224         96          8          0          0       2583   app_diss_task.o
       472         26          0          0         80       6213   app_easy_timer.o
       136          8         16          0          0       3983   app_entry_point.o
        40          4          0          0          0       1523   app_msg_utils.o
       644         18        120          0          1      12952   app_task.o
       316         16          0          0        264       7938   arch_console.o
       700         80          0          0          8      17776   arch_main.o
       232        100          0          0          2       2055   arch_rom.o
       292         16          0          0          4       3624   arch_sleep.o
       964         76         90          4         48      91400   arch_system.o
       524          6          0          0          0       6289   attm_db_128.o
       288          6          0          0          0       5221   custom_common.o
       404         30         16          0          0       7216   custs1.o
      1540         22         80          0          0      23890   custs1_task.o
       380         12        244          0          0      13524   diss.o
       472          8         32          0          0      18036   diss_task.o
       588         20          8          0        188      15383   gpio.o
       104         12          0          0          0      10177   hardfault_handler.o
       120         10          0          0          0       2225   hw_otpc_58x.o
        56         12          0          0         48       8636   i2c.o
        80          4        576          0       4104       8409   jump_table.o
       156         16          0          0          0       8939   nmi_handler.o
       200         14         14          0          0       3008   nvds.o
        16          4          0          0          0       1229   otp_hdr.o
       524          4          0          0        768       6170   prf.o
       380         90          0          0          1      75098   rf_585.o
       672         48          0          0         21      75776   rwble.o
       464         54          0          0         12      75624   rwip.o
        80         16        160          0       1536        828   startup_da14585_586.o
        44          0          0          0          0        749   syscntl.o
        72          8          0          0          0     246317   system_da14585_586.o
       448         42          0          0       1040       4460   trng.o
       920         26          0          0         64      15678   uart.o
         0          0       1421          0          0       2019   user_custs1_def.o
       440         16          0          0          8       4493   user_custs1_impl.o
         0          0         56          0          0        937   user_custs_config.o
       432         20         24          0          0       4877   user_periph_setup.o
       716         60          0          0         74       6631   user_peripheral.o
       116         12          0          0          8      12254   wkupct_quadec.o

    ----------------------------------------------------------------------
     16028       1128       3002          4       9378     857561   Object Totals
         0          0         48          0        984          0   (incl. Generated)
         0          0          5          0         19          0   (incl. Padding)

    ----------------------------------------------------------------------

      Code (inc. data)   RO Data    RW Data    ZI Data      Debug   Library Member Name

      5468        232        224          0          0       1016   patch.o
        36         10         22          0         40         60   pll_vcocal_lut.o
       916         88          0          0          0        400   rf_calibration.o
       232         14          0          0          0        112   smpc_util.o
         0          0          0          0          0          0   entry.o
         0          0          0          0          0          0   entry10a.o
         0          0          0          0          0          0   entry11a.o
         4          0          0          0          0          0   entry12b.o
         8          4          0          0          0          0   entry2.o
         4          0          0          0          0          0   entry5.o
         0          0          0          0          0          0   entry7b.o
         0          0          0          0          0          0   entry8b.o
         8          4          0          0          0          0   entry9a.o
        30          0          0          0          0          0   handlers.o
        36          8          0          0          0         68   init.o

    ----------------------------------------------------------------------
      6742        360        248          0         42       1656   Library Totals
         0          0          2          0          2          0   (incl. Padding)

    ----------------------------------------------------------------------

      Code (inc. data)   RO Data    RW Data    ZI Data      Debug   Library Name

      6652        344        246          0         40       1588   da14585_586.lib
        90         16          0          0          0         68   mc_p.l

    ----------------------------------------------------------------------
      6742        360        248          0         42       1656   Library Totals

    ----------------------------------------------------------------------

==============================================================================


      Code (inc. data)   RO Data    RW Data    ZI Data      Debug   

     22770       1488       3250          4       9420     856025   Grand Totals
     22770       1488       3250          4       9420     856025   ELF Image Totals
     22770       1488       3250          4          0          0   ROM Totals

==============================================================================

    Total RO  Size (Code + RO Data)                26020 (  25.41kB)
    Total RW  Size (RW Data + ZI Data)              9424 (   9.20kB)
    Total ROM Size (Code + RO Data + RW Data)      26024 (  25.41kB)

==============================================================================

